

Microchip MPLAB XC8 Assembler V2.41 build 20230208172133 
                                                                                               Thu Dec 21 08:20:40 2023

Microchip MPLAB XC8 C Compiler v2.41 (Free license) build 20230208172133 Og1 
     1                           	processor	18F4580
     2                           	fnconf	rparam,??,?,0
     3                           	pagewidth 120
     4                           	opt	flic
     5                           	psect	idataCOMRAM,global,class=CODE,delta=1,noexec
     6                           	psect	idataBANK0,global,class=CODE,delta=1,noexec
     7                           	psect	mediumconst,global,reloc=2,class=MEDIUMCONST,delta=1,noexec
     8                           	psect	cinit,global,reloc=2,class=CODE,delta=1
     9                           	psect	bssCOMRAM,global,class=COMRAM,space=1,delta=1,lowdata,noexec
    10                           	psect	dataCOMRAM,global,class=COMRAM,space=1,delta=1,lowdata,noexec
    11                           	psect	bssBANK0,global,class=BANK0,space=1,delta=1,lowdata,noexec
    12                           	psect	dataBANK0,global,class=BANK0,space=1,delta=1,lowdata,noexec
    13                           	psect	cstackCOMRAM,global,class=COMRAM,space=1,delta=1,lowdata,noexec
    14                           	psect	text0,global,reloc=2,class=CODE,delta=1
    15                           	psect	text1,global,reloc=2,class=CODE,delta=1
    16                           	psect	text2,global,reloc=2,class=CODE,delta=1
    17                           	psect	text3,global,reloc=2,class=CODE,delta=1
    18                           	psect	text4,global,reloc=2,class=CODE,delta=1
    19                           	psect	text5,global,reloc=2,class=CODE,delta=1
    20                           	psect	text6,global,reloc=2,class=CODE,delta=1
    21                           	psect	text7,global,reloc=2,class=CODE,delta=1,group=1
    22                           	psect	text8,global,reloc=2,class=CODE,delta=1
    23                           	psect	text9,global,reloc=2,class=CODE,delta=1
    24                           	psect	text10,global,reloc=2,class=CODE,delta=1
    25                           	psect	text11,global,reloc=2,class=CODE,delta=1
    26                           	psect	text12,global,reloc=2,class=CODE,delta=1
    27                           	psect	text13,global,reloc=2,class=CODE,delta=1
    28                           	psect	text14,global,reloc=2,class=CODE,delta=1
    29                           	psect	text15,global,reloc=2,class=CODE,delta=1
    30                           	psect	text16,global,reloc=2,class=CODE,delta=1
    31                           	psect	text17,global,reloc=2,class=CODE,delta=1
    32                           	psect	text18,global,reloc=2,class=CODE,delta=1
    33                           	psect	text19,global,reloc=2,class=CODE,delta=1
    34                           	psect	text20,global,reloc=2,class=CODE,delta=1
    35                           	psect	text21,global,reloc=2,class=CODE,delta=1,group=1
    36                           	psect	text22,global,reloc=2,class=CODE,delta=1,group=1
    37                           	psect	text23,global,reloc=2,class=CODE,delta=1,group=1
    38                           	psect	text24,global,reloc=2,class=CODE,delta=1,group=1
    39                           	psect	text25,global,reloc=2,class=CODE,delta=1,group=1
    40                           	psect	intcode,global,reloc=2,class=CODE,delta=1
    41                           	psect	intcode_body,global,reloc=2,class=CODE,delta=1
    42                           	psect	intsave_regs,global,class=BIGRAM,space=1,delta=1,noexec
    43                           	psect	rparam,global,class=COMRAM,space=1,delta=1,noexec
    44                           	psect	temp,global,ovrld,common,class=COMRAM,space=1,delta=1
    45                           	psect	config,global,abs,ovrld,class=CONFIG,space=4,delta=1,noexec
    46   000000                     
    47                           ; Generated 23/03/2023 GMT
    48                           ; 
    49                           ; Copyright © 2023, Microchip Technology Inc. and its subsidiaries ("Microchip")
    50                           ; All rights reserved.
    51                           ; 
    52                           ; This software is developed by Microchip Technology Inc. and its subsidiaries ("Microch
      +                          ip").
    53                           ; 
    54                           ; Redistribution and use in source and binary forms, with or without modification, are
    55                           ; permitted provided that the following conditions are met:
    56                           ; 
    57                           ;     1. Redistributions of source code must retain the above copyright notice, this lis
      +                          t of
    58                           ;        conditions and the following disclaimer.
    59                           ; 
    60                           ;     2. Redistributions in binary form must reproduce the above copyright notice, this 
      +                          list
    61                           ;        of conditions and the following disclaimer in the documentation and/or other
    62                           ;        materials provided with the distribution. Publication is not required when
    63                           ;        this file is used in an embedded application.
    64                           ; 
    65                           ;     3. Microchip's name may not be used to endorse or promote products derived from th
      +                          is
    66                           ;        software without specific prior written permission.
    67                           ; 
    68                           ; THIS SOFTWARE IS PROVIDED BY MICROCHIP "AS IS" AND ANY EXPRESS OR IMPLIED WARRANTIES,
    69                           ; INCLUDING, BUT NOT LIMITED TO, THE IMPLIED WARRANTIES OF MERCHANTABILITY AND FITNESS F
      +                          OR
    70                           ; PURPOSE ARE DISCLAIMED.  IN NO EVENT SHALL MICROCHIP BE LIABLE FOR ANY DIRECT, INDIREC
      +                          T,
    71                           ; INCIDENTAL, SPECIAL, EXEMPLARY, OR CONSEQUENTIAL DAMAGES (INCLUDING BUT NOT LIMITED TO
    72                           ; PROCUREMENT OF SUBSTITUTE GOODS OR SERVICES; LOSS OF USE, DATA OR PROFITS; OR BUSINESS
    73                           ; INTERRUPTION) HOWSOEVER CAUSED AND ON ANY THEORY OF LIABILITY, WHETHER IN CONTRACT, ST
      +                          RICT
    74                           ; LIABILITY, OR TORT (INCLUDING NEGLIGENCE OR OTHERWISE) ARISING IN ANY WAY OUT OF THE U
      +                          SE OF
    75                           ; THIS SOFTWARE, EVEN IF ADVISED OF THE POSSIBILITY OF SUCH DAMAGE.
    76                           ; 
    77                           ; 
    78                           ; Code-generator required, PIC18F4580 Definitions
    79                           ; 
    80                           ; SFR Addresses
    81   000000                     
    82                           	psect	idataCOMRAM
    83   00131C                     __pidataCOMRAM:
    84                           	callstack 0
    85                           
    86                           ;initializer for _tryflag
    87   00131C  0002               	dw	2
    88                           
    89                           ;initializer for _sec
    90   00131E  000A               	dw	10
    91                           
    92                           ;initializer for _controlflag
    93   001320  0001               	dw	1
    94                           
    95                           ;initializer for read_switches@uconce
    96   001322  01                 	db	1
    97                           
    98                           	psect	idataBANK0
    99   001254                     __pidataBANK0:
   100                           	callstack 0
   101                           
   102                           ;initializer for _signature
   103   001254  F9                 	db	low STR_1
   104   001255  7F                 	db	high STR_1
   105   001256  F6                 	db	low STR_2
   106   001257  7F                 	db	high STR_2
   107   001258  EA                 	db	low STR_3
   108   001259  7F                 	db	high STR_3
   109   00125A  ED                 	db	low STR_4
   110   00125B  7F                 	db	high STR_4
   111   00125C  F0                 	db	low STR_5
   112   00125D  7F                 	db	high STR_5
   113   00125E  F3                 	db	low STR_6
   114   00125F  7F                 	db	high STR_6
   115   001260  FC                 	db	low STR_7
   116   001261  7F                 	db	high STR_7
   117   001262  E7                 	db	low STR_8
   118   001263  7F                 	db	high STR_8
   119                           
   120                           ;initializer for _scrolling
   121   001264  18                 	db	low STR_21
   122   001265  7F                 	db	high STR_21
   123   001266  05                 	db	low STR_22
   124   001267  7F                 	db	high STR_22
   125   001268  A1                 	db	low STR_23
   126   001269  7F                 	db	high STR_23
   127   00126A  B1                 	db	low STR_24
   128   00126B  7F                 	db	high STR_24
   129   00126C  F1                 	db	low STR_25
   130   00126D  7E                 	db	high STR_25
   131                           
   132                           ;initializer for _notpressed
   133   00126E  2710               	dw	10000
   134   001270  0000               	dw	0
   135                           
   136                           ;initializer for _pass
   137   001272  31                 	db	49
   138   001273  31                 	db	49
   139   001274  30                 	db	48
   140   001275  30                 	db	48
   141   001276  00                 	db	0
   142   000000                     _PORTBbits	set	3969
   143   000000                     _TRISD	set	3989
   144   000000                     _PORTDbits	set	3971
   145   000000                     _ADCON0	set	4034
   146   000000                     _TMR2ON	set	32338
   147   000000                     _T2CKPS1	set	32337
   148   000000                     _PSA	set	32427
   149   000000                     _T0CS	set	32429
   150   000000                     _T08BIT	set	32430
   151   000000                     _TMR0IE	set	32661
   152   000000                     _PEIE	set	32662
   153   000000                     _GIE	set	32663
   154   000000                     _GO	set	32273
   155   000000                     _ADFM	set	32263
   156   000000                     _ADCS0	set	32256
   157   000000                     _ADCS1	set	32257
   158   000000                     _ADCS2	set	32258
   159   000000                     _ACQT0	set	32259
   160   000000                     _ACQT1	set	32260
   161   000000                     _PCFG0	set	32264
   162   000000                     _PCFG1	set	32265
   163   000000                     _PCFG2	set	32266
   164   000000                     _PCFG3	set	32267
   165   000000                     _VCFG0	set	32268
   166   000000                     _PORTB	set	3969
   167   000000                     _PORTCbits	set	3970
   168   000000                     _ACQT2	set	32261
   169   000000                     _VCFG1	set	32269
   170   000000                     _ADON	set	32272
   171   000000                     _TMR0	set	4054
   172   000000                     _ADRESH	set	4036
   173   000000                     _ADRESL	set	4035
   174   000000                     _T2CKPS0	set	32336
   175   000000                     _TMR0ON	set	32431
   176   000000                     _RBPU	set	32655
   177   000000                     _TRISB	set	3987
   178   000000                     _TRISC	set	3988
   179   000000                     _PORTD	set	3971
   180   000000                     _TRISD7	set	31919
   181   000000                     _TMR2IE	set	31977
   182   000000                     _TMR0IF	set	32658
   183   000000                     _PR2	set	4043
   184                           
   185                           	psect	mediumconst
   186   007EF0                     __pmediumconst:
   187                           	callstack 0
   188   007EF0  00                 	db	0
   189   007EF1                     STR_25:
   190   007EF1  20                 	db	32
   191   007EF2  20                 	db	32
   192   007EF3  63                 	db	99	;'c'
   193   007EF4  68                 	db	104	;'h'
   194   007EF5  61                 	db	97	;'a'
   195   007EF6  6E                 	db	110	;'n'
   196   007EF7  67                 	db	103	;'g'
   197   007EF8  65                 	db	101	;'e'
   198   007EF9  20                 	db	32
   199   007EFA  70                 	db	112	;'p'
   200   007EFB  61                 	db	97	;'a'
   201   007EFC  73                 	db	115	;'s'
   202   007EFD  73                 	db	115	;'s'
   203   007EFE  77                 	db	119	;'w'
   204   007EFF  6F                 	db	111	;'o'
   205   007F00  72                 	db	114	;'r'
   206   007F01  64                 	db	100	;'d'
   207   007F02  20                 	db	32
   208   007F03  20                 	db	32
   209   007F04  00                 	db	0
   210   007F05                     STR_22:
   211   007F05  20                 	db	32
   212   007F06  20                 	db	32
   213   007F07  20                 	db	32
   214   007F08  64                 	db	100	;'d'
   215   007F09  6F                 	db	111	;'o'
   216   007F0A  77                 	db	119	;'w'
   217   007F0B  6E                 	db	110	;'n'
   218   007F0C  6C                 	db	108	;'l'
   219   007F0D  6F                 	db	111	;'o'
   220   007F0E  61                 	db	97	;'a'
   221   007F0F  64                 	db	100	;'d'
   222   007F10  20                 	db	32
   223   007F11  20                 	db	32
   224   007F12  6C                 	db	108	;'l'
   225   007F13  6F                 	db	111	;'o'
   226   007F14  67                 	db	103	;'g'
   227   007F15  20                 	db	32
   228   007F16  20                 	db	32
   229   007F17  00                 	db	0
   230   007F18                     STR_21:
   231   007F18  20                 	db	32
   232   007F19  20                 	db	32
   233   007F1A  20                 	db	32
   234   007F1B  76                 	db	118	;'v'
   235   007F1C  69                 	db	105	;'i'
   236   007F1D  65                 	db	101	;'e'
   237   007F1E  77                 	db	119	;'w'
   238   007F1F  20                 	db	32
   239   007F20  20                 	db	32
   240   007F21  20                 	db	32
   241   007F22  20                 	db	32
   242   007F23  6C                 	db	108	;'l'
   243   007F24  6F                 	db	111	;'o'
   244   007F25  67                 	db	103	;'g'
   245   007F26  20                 	db	32
   246   007F27  20                 	db	32
   247   007F28  20                 	db	32
   248   007F29  00                 	db	0
   249   007F2A                     STR_26:
   250   007F2A  20                 	db	32
   251   007F2B  53                 	db	83	;'S'
   252   007F2C  63                 	db	99	;'c'
   253   007F2D  72                 	db	114	;'r'
   254   007F2E  6F                 	db	111	;'o'
   255   007F2F  6C                 	db	108	;'l'
   256   007F30  6C                 	db	108	;'l'
   257   007F31  20                 	db	32
   258   007F32  64                 	db	100	;'d'
   259   007F33  69                 	db	105	;'i'
   260   007F34  73                 	db	115	;'s'
   261   007F35  70                 	db	112	;'p'
   262   007F36  6C                 	db	108	;'l'
   263   007F37  61                 	db	97	;'a'
   264   007F38  79                 	db	121	;'y'
   265   007F39  20                 	db	32
   266   007F3A  00                 	db	0
   267   007F3B                     STR_12:
   268   007F3B  20                 	db	32
   269   007F3C  20                 	db	32
   270   007F3D  20                 	db	32
   271   007F3E  20                 	db	32
   272   007F3F  20                 	db	32
   273   007F40  20                 	db	32
   274   007F41  20                 	db	32
   275   007F42  20                 	db	32
   276   007F43  20                 	db	32
   277   007F44  20                 	db	32
   278   007F45  20                 	db	32
   279   007F46  20                 	db	32
   280   007F47  20                 	db	32
   281   007F48  20                 	db	32
   282   007F49  20                 	db	32
   283   007F4A  20                 	db	32
   284   007F4B  00                 	db	0
   285   007F4C                     STR_14:
   286   007F4C  20                 	db	32
   287   007F4D  57                 	db	87	;'W'
   288   007F4E  72                 	db	114	;'r'
   289   007F4F  6F                 	db	111	;'o'
   290   007F50  6E                 	db	110	;'n'
   291   007F51  67                 	db	103	;'g'
   292   007F52  20                 	db	32
   293   007F53  50                 	db	80	;'P'
   294   007F54  61                 	db	97	;'a'
   295   007F55  73                 	db	115	;'s'
   296   007F56  73                 	db	115	;'s'
   297   007F57  77                 	db	119	;'w'
   298   007F58  6F                 	db	111	;'o'
   299   007F59  72                 	db	114	;'r'
   300   007F5A  64                 	db	100	;'d'
   301   007F5B  20                 	db	32
   302   007F5C  00                 	db	0
   303   007F5D                     STR_11:
   304   007F5D  20                 	db	32
   305   007F5E  45                 	db	69	;'E'
   306   007F5F  6E                 	db	110	;'n'
   307   007F60  74                 	db	116	;'t'
   308   007F61  65                 	db	101	;'e'
   309   007F62  72                 	db	114	;'r'
   310   007F63  20                 	db	32
   311   007F64  50                 	db	80	;'P'
   312   007F65  61                 	db	97	;'a'
   313   007F66  73                 	db	115	;'s'
   314   007F67  73                 	db	115	;'s'
   315   007F68  77                 	db	119	;'w'
   316   007F69  6F                 	db	111	;'o'
   317   007F6A  72                 	db	114	;'r'
   318   007F6B  64                 	db	100	;'d'
   319   007F6C  20                 	db	32
   320   007F6D  00                 	db	0
   321   007F6E                     STR_13:
   322   007F6E  43                 	db	67	;'C'
   323   007F6F  6F                 	db	111	;'o'
   324   007F70  64                 	db	100	;'d'
   325   007F71  65                 	db	101	;'e'
   326   007F72  20                 	db	32
   327   007F73  50                 	db	80	;'P'
   328   007F74  61                 	db	97	;'a'
   329   007F75  73                 	db	115	;'s'
   330   007F76  73                 	db	115	;'s'
   331   007F77  65                 	db	101	;'e'
   332   007F78  64                 	db	100	;'d'
   333   007F79  20                 	db	32
   334   007F7A  20                 	db	32
   335   007F7B  2D                 	db	45
   336   007F7C  2D                 	db	45
   337   007F7D  3E                 	db	62	;'>'
   338   007F7E  00                 	db	0
   339   007F7F                     STR_15:
   340   007F7F  20                 	db	32
   341   007F80  61                 	db	97	;'a'
   342   007F81  74                 	db	116	;'t'
   343   007F82  74                 	db	116	;'t'
   344   007F83  65                 	db	101	;'e'
   345   007F84  6D                 	db	109	;'m'
   346   007F85  70                 	db	112	;'p'
   347   007F86  74                 	db	116	;'t'
   348   007F87  20                 	db	32
   349   007F88  52                 	db	82	;'R'
   350   007F89  65                 	db	101	;'e'
   351   007F8A  6D                 	db	109	;'m'
   352   007F8B  61                 	db	97	;'a'
   353   007F8C  69                 	db	105	;'i'
   354   007F8D  6E                 	db	110	;'n'
   355   007F8E  73                 	db	115	;'s'
   356   007F8F  00                 	db	0
   357   007F90                     STR_9:
   358   007F90  20                 	db	32
   359   007F91  20                 	db	32
   360   007F92  20                 	db	32
   361   007F93  54                 	db	84	;'T'
   362   007F94  69                 	db	105	;'i'
   363   007F95  6D                 	db	109	;'m'
   364   007F96  65                 	db	101	;'e'
   365   007F97  20                 	db	32
   366   007F98  20                 	db	32
   367   007F99  20                 	db	32
   368   007F9A  20                 	db	32
   369   007F9B  45                 	db	69	;'E'
   370   007F9C  20                 	db	32
   371   007F9D  20                 	db	32
   372   007F9E  53                 	db	83	;'S'
   373   007F9F  50                 	db	80	;'P'
   374   007FA0  00                 	db	0
   375   007FA1                     STR_23:
   376   007FA1  20                 	db	32
   377   007FA2  20                 	db	32
   378   007FA3  63                 	db	99	;'c'
   379   007FA4  6C                 	db	108	;'l'
   380   007FA5  65                 	db	101	;'e'
   381   007FA6  61                 	db	97	;'a'
   382   007FA7  72                 	db	114	;'r'
   383   007FA8  20                 	db	32
   384   007FA9  20                 	db	32
   385   007FAA  20                 	db	32
   386   007FAB  6C                 	db	108	;'l'
   387   007FAC  6F                 	db	111	;'o'
   388   007FAD  67                 	db	103	;'g'
   389   007FAE  20                 	db	32
   390   007FAF  20                 	db	32
   391   007FB0  00                 	db	0
   392   007FB1                     STR_24:
   393   007FB1  20                 	db	32
   394   007FB2  20                 	db	32
   395   007FB3  73                 	db	115	;'s'
   396   007FB4  65                 	db	101	;'e'
   397   007FB5  74                 	db	116	;'t'
   398   007FB6  20                 	db	32
   399   007FB7  20                 	db	32
   400   007FB8  20                 	db	32
   401   007FB9  74                 	db	116	;'t'
   402   007FBA  69                 	db	105	;'i'
   403   007FBB  6D                 	db	109	;'m'
   404   007FBC  65                 	db	101	;'e'
   405   007FBD  20                 	db	32
   406   007FBE  20                 	db	32
   407   007FBF  00                 	db	0
   408   007FC0                     STR_16:
   409   007FC0  54                 	db	84	;'T'
   410   007FC1  72                 	db	114	;'r'
   411   007FC2  79                 	db	121	;'y'
   412   007FC3  20                 	db	32
   413   007FC4  41                 	db	65	;'A'
   414   007FC5  67                 	db	103	;'g'
   415   007FC6  61                 	db	97	;'a'
   416   007FC7  69                 	db	105	;'i'
   417   007FC8  6E                 	db	110	;'n'
   418   007FC9  20                 	db	32
   419   007FCA  6C                 	db	108	;'l'
   420   007FCB  65                 	db	101	;'e'
   421   007FCC  66                 	db	102	;'f'
   422   007FCD  74                 	db	116	;'t'
   423   007FCE  00                 	db	0
   424   007FCF                     STR_10:
   425   007FCF  20                 	db	32
   426   007FD0  31                 	db	49	;'1'
   427   007FD1  30                 	db	48	;'0'
   428   007FD2  3A                 	db	58	;':'
   429   007FD3  30                 	db	48	;'0'
   430   007FD4  30                 	db	48	;'0'
   431   007FD5  3A                 	db	58	;':'
   432   007FD6  30                 	db	48	;'0'
   433   007FD7  30                 	db	48	;'0'
   434   007FD8  00                 	db	0
   435   007FD9                     STR_19:
   436   007FD9  57                 	db	87	;'W'
   437   007FDA  61                 	db	97	;'a'
   438   007FDB  69                 	db	105	;'i'
   439   007FDC  74                 	db	116	;'t'
   440   007FDD  20                 	db	32
   441   007FDE  66                 	db	102	;'f'
   442   007FDF  6F                 	db	111	;'o'
   443   007FE0  72                 	db	114	;'r'
   444   007FE1  00                 	db	0
   445   007FE2                     STR_20:
   446   007FE2  20                 	db	32
   447   007FE3  73                 	db	115	;'s'
   448   007FE4  20                 	db	32
   449   007FE5  20                 	db	32
   450   007FE6  00                 	db	0
   451   007FE7                     STR_8:
   452   007FE7  43                 	db	67	;'C'
   453   007FE8  20                 	db	32
   454   007FE9  00                 	db	0
   455   007FEA                     STR_3:
   456   007FEA  47                 	db	71	;'G'
   457   007FEB  31                 	db	49	;'1'
   458   007FEC  00                 	db	0
   459   007FED                     STR_4:
   460   007FED  47                 	db	71	;'G'
   461   007FEE  32                 	db	50	;'2'
   462   007FEF  00                 	db	0
   463   007FF0                     STR_5:
   464   007FF0  47                 	db	71	;'G'
   465   007FF1  33                 	db	51	;'3'
   466   007FF2  00                 	db	0
   467   007FF3                     STR_6:
   468   007FF3  47                 	db	71	;'G'
   469   007FF4  34                 	db	52	;'4'
   470   007FF5  00                 	db	0
   471   007FF6                     STR_2:
   472   007FF6  47                 	db	71	;'G'
   473   007FF7  4E                 	db	78	;'N'
   474   007FF8  00                 	db	0
   475   007FF9                     STR_1:
   476   007FF9  4F                 	db	79	;'O'
   477   007FFA  4E                 	db	78	;'N'
   478   007FFB  00                 	db	0
   479   007FFC                     STR_7:
   480   007FFC  47                 	db	71	;'G'
   481   007FFD  52                 	db	82	;'R'
   482   007FFE  00                 	db	0
   483   007FFF  00                 	db	0	; dummy byte at the end
   484   000000                     
   485                           ; #config settings
   486                           
   487                           	psect	cinit
   488   00101E                     __pcinit:
   489                           	callstack 0
   490   00101E                     start_initialization:
   491                           	callstack 0
   492   00101E                     __initialization:
   493                           	callstack 0
   494                           
   495                           ; Initialize objects allocated to BANK0 (35 bytes)
   496                           ; load TBLPTR registers with __pidataBANK0
   497   00101E  0E54               	movlw	low __pidataBANK0
   498   001020  6EF6               	movwf	tblptrl,c
   499   001022  0E12               	movlw	high __pidataBANK0
   500   001024  6EF7               	movwf	tblptrh,c
   501   001026  0E00               	movlw	low (__pidataBANK0 shr (0+16))
   502   001028  6EF8               	movwf	tblptru,c
   503   00102A  EE00  F060         	lfsr	0,__pdataBANK0
   504   00102E  EE10 F023          	lfsr	1,35
   505   001032                     copy_data0:
   506   001032  0009               	tblrd		*+
   507   001034  CFF5 FFEE          	movff	tablat,postinc0
   508   001038  50E5               	movf	postdec1,w,c
   509   00103A  50E1               	movf	fsr1l,w,c
   510   00103C  E1FA               	bnz	copy_data0
   511                           
   512                           ; Initialize objects allocated to COMRAM (7 bytes)
   513                           ; load TBLPTR registers with __pidataCOMRAM
   514   00103E  0E1C               	movlw	low __pidataCOMRAM
   515   001040  6EF6               	movwf	tblptrl,c
   516   001042  0E13               	movlw	high __pidataCOMRAM
   517   001044  6EF7               	movwf	tblptrh,c
   518   001046  0E00               	movlw	low (__pidataCOMRAM shr (0+16))
   519   001048  6EF8               	movwf	tblptru,c
   520   00104A  EE00  F053         	lfsr	0,__pdataCOMRAM
   521   00104E  EE10 F007          	lfsr	1,7
   522   001052                     copy_data1:
   523   001052  0009               	tblrd		*+
   524   001054  CFF5 FFEE          	movff	tablat,postinc0
   525   001058  50E5               	movf	postdec1,w,c
   526   00105A  50E1               	movf	fsr1l,w,c
   527   00105C  E1FA               	bnz	copy_data1
   528                           
   529                           ; Clear objects allocated to BANK0 (5 bytes)
   530   00105E  0100               	movlb	0
   531   001060  6B87               	clrf	(__pbssBANK0+4)& (0+255),b
   532   001062  6B86               	clrf	(__pbssBANK0+3)& (0+255),b
   533   001064  6B85               	clrf	(__pbssBANK0+2)& (0+255),b
   534   001066  6B84               	clrf	(__pbssBANK0+1)& (0+255),b
   535   001068  6B83               	clrf	__pbssBANK0& (0+255),b
   536                           
   537                           ; Clear objects allocated to COMRAM (22 bytes)
   538   00106A  EE00  F03D         	lfsr	0,__pbssCOMRAM
   539   00106E  0E16               	movlw	22
   540   001070                     clear_0:
   541   001070  6AEE               	clrf	postinc0,c
   542   001072  06E8               	decf	wreg,f,c
   543   001074  E1FD               	bnz	clear_0
   544   001076                     end_of_initialization:
   545                           	callstack 0
   546   001076                     __end_of__initialization:
   547                           	callstack 0
   548   001076  905A               	bcf	int$flags,0,c	;clear compiler interrupt flag (level 1)
   549   001078  925A               	bcf	int$flags,1,c	;clear compiler interrupt flag (level 2)
   550   00107A  0E00               	movlw	low (__Lmediumconst shr (0+16))
   551   00107C  6EF8               	movwf	tblptru,c
   552   00107E  0100               	movlb	0
   553   001080  EF45  F004         	goto	_main	;jump to C main() function
   554                           
   555                           	psect	bssCOMRAM
   556   00003D                     __pbssCOMRAM:
   557                           	callstack 0
   558   00003D                     _wait:
   559                           	callstack 0
   560   00003D                     	ds	4
   561   000041                     _compareflag:
   562                           	callstack 0
   563   000041                     	ds	2
   564   000043                     _enterflag:
   565                           	callstack 0
   566   000043                     	ds	2
   567   000045                     _blinkflag:
   568                           	callstack 0
   569   000045                     	ds	2
   570   000047                     _blink:
   571                           	callstack 0
   572   000047                     	ds	2
   573   000049                     _min:
   574                           	callstack 0
   575   000049                     	ds	2
   576   00004B                     isr@count:
   577                           	callstack 0
   578   00004B                     	ds	2
   579   00004D                     _logout:
   580                           	callstack 0
   581   00004D                     	ds	2
   582   00004F                     _i:
   583                           	callstack 0
   584   00004F                     	ds	1
   585   000050                     read_switches@uckey:
   586                           	callstack 0
   587   000050                     	ds	1
   588   000051                     gear_monitor@crashflag:
   589                           	callstack 0
   590   000051                     	ds	1
   591   000052                     gear_monitor@signindex:
   592                           	callstack 0
   593   000052                     	ds	1
   594                           
   595                           	psect	dataCOMRAM
   596   000053                     __pdataCOMRAM:
   597                           	callstack 0
   598   000053                     _tryflag:
   599                           	callstack 0
   600   000053                     	ds	2
   601   000055                     _sec:
   602                           	callstack 0
   603   000055                     	ds	2
   604   000057                     _controlflag:
   605                           	callstack 0
   606   000057                     	ds	2
   607   000059                     read_switches@uconce:
   608                           	callstack 0
   609   000059                     	ds	1
   610                           
   611                           	psect	bssBANK0
   612   000083                     __pbssBANK0:
   613                           	callstack 0
   614   000083                     _uckey:
   615                           	callstack 0
   616   000083                     	ds	5
   617                           
   618                           	psect	dataBANK0
   619   000060                     __pdataBANK0:
   620                           	callstack 0
   621   000060                     _signature:
   622                           	callstack 0
   623   000060                     	ds	16
   624   000070                     _scrolling:
   625                           	callstack 0
   626   000070                     	ds	10
   627   00007A                     _notpressed:
   628                           	callstack 0
   629   00007A                     	ds	4
   630   00007E                     _pass:
   631                           	callstack 0
   632   00007E                     	ds	5
   633                           
   634                           	psect	cstackCOMRAM
   635   000001                     __pcstackCOMRAM:
   636                           	callstack 0
   637   000001                     ?_read_adc:
   638                           	callstack 0
   639   000001                     ?_mystrcmp:
   640   000001                     ?___awdiv:
   641                           	callstack 0
   642   000001                     ?___lwdiv:
   643                           	callstack 0
   644   000001                     clcd_write@control_bit:
   645                           	callstack 0
   646   000001                     read_switches@ucdetection:
   647                           	callstack 0
   648   000001                     mystrcmp@s1:
   649                           	callstack 0
   650   000001                     ___awdiv@dividend:
   651                           	callstack 0
   652   000001                     ___lwdiv@dividend:
   653                           	callstack 0
   654                           
   655                           ; 2 bytes @ 0x0
   656   000001                     	ds	1
   657   000002                     clcd_write@byte:
   658                           	callstack 0
   659                           
   660                           ; 1 bytes @ 0x1
   661   000002                     	ds	1
   662   000003                     ??_init_clcd:
   663   000003                     ??_read_adc:
   664   000003                     clcd_print@data:
   665                           	callstack 0
   666   000003                     mystrcmp@s2:
   667                           	callstack 0
   668   000003                     ___awdiv@divisor:
   669                           	callstack 0
   670   000003                     ___lwdiv@divisor:
   671                           	callstack 0
   672                           
   673                           ; 2 bytes @ 0x2
   674   000003                     	ds	2
   675   000005                     read_adc@channel:
   676                           	callstack 0
   677   000005                     clcd_print@addr:
   678                           	callstack 0
   679   000005                     ___awdiv@counter:
   680                           	callstack 0
   681   000005                     ___lwdiv@quotient:
   682                           	callstack 0
   683                           
   684                           ; 2 bytes @ 0x4
   685   000005                     	ds	1
   686   000006                     ?___xxtofl:
   687                           	callstack 0
   688   000006                     ___awdiv@sign:
   689                           	callstack 0
   690   000006                     ___xxtofl@val:
   691                           	callstack 0
   692                           
   693                           ; 4 bytes @ 0x5
   694   000006                     	ds	1
   695   000007                     ___lwdiv@counter:
   696                           	callstack 0
   697   000007                     mystrcmp@i:
   698                           	callstack 0
   699   000007                     ___awdiv@quotient:
   700                           	callstack 0
   701                           
   702                           ; 2 bytes @ 0x6
   703   000007                     	ds	2
   704   000009                     ?___awmod:
   705                           	callstack 0
   706   000009                     ___awmod@dividend:
   707                           	callstack 0
   708                           
   709                           ; 2 bytes @ 0x8
   710   000009                     	ds	1
   711   00000A                     ??___xxtofl:
   712                           
   713                           ; 1 bytes @ 0x9
   714   00000A                     	ds	1
   715   00000B                     ___awmod@divisor:
   716                           	callstack 0
   717                           
   718                           ; 2 bytes @ 0xA
   719   00000B                     	ds	2
   720   00000D                     ___awmod@counter:
   721                           	callstack 0
   722                           
   723                           ; 1 bytes @ 0xC
   724   00000D                     	ds	1
   725   00000E                     ___awmod@sign:
   726                           	callstack 0
   727   00000E                     ___xxtofl@sign:
   728                           	callstack 0
   729                           
   730                           ; 1 bytes @ 0xD
   731   00000E                     	ds	1
   732   00000F                     clcd_putch@addr:
   733                           	callstack 0
   734   00000F                     ___xxtofl@exp:
   735                           	callstack 0
   736                           
   737                           ; 1 bytes @ 0xE
   738   00000F                     	ds	1
   739   000010                     clcd_putch@data:
   740                           	callstack 0
   741   000010                     ___xxtofl@arg:
   742                           	callstack 0
   743                           
   744                           ; 4 bytes @ 0xF
   745   000010                     	ds	1
   746   000011                     ??_gear_monitor:
   747   000011                     logscreen@key:
   748                           	callstack 0
   749   000011                     display_speed@usadc:
   750                           	callstack 0
   751                           
   752                           ; 2 bytes @ 0x10
   753   000011                     	ds	2
   754   000013                     gear_monitor@uckey:
   755                           	callstack 0
   756                           
   757                           ; 1 bytes @ 0x12
   758   000013                     	ds	1
   759   000014                     ?___fldiv:
   760                           	callstack 0
   761   000014                     display_dashboard@usads:
   762                           	callstack 0
   763   000014                     ___fldiv@b:
   764                           	callstack 0
   765                           
   766                           ; 4 bytes @ 0x13
   767   000014                     	ds	2
   768   000016                     display_dashboard@uckey:
   769                           	callstack 0
   770                           
   771                           ; 1 bytes @ 0x15
   772   000016                     	ds	2
   773   000018                     ___fldiv@a:
   774                           	callstack 0
   775                           
   776                           ; 4 bytes @ 0x17
   777   000018                     	ds	4
   778   00001C                     ??___fldiv:
   779                           
   780                           ; 1 bytes @ 0x1B
   781   00001C                     	ds	4
   782   000020                     ___fldiv@rem:
   783                           	callstack 0
   784                           
   785                           ; 4 bytes @ 0x1F
   786   000020                     	ds	4
   787   000024                     ___fldiv@sign:
   788                           	callstack 0
   789                           
   790                           ; 1 bytes @ 0x23
   791   000024                     	ds	1
   792   000025                     ___fldiv@new_exp:
   793                           	callstack 0
   794                           
   795                           ; 2 bytes @ 0x24
   796   000025                     	ds	2
   797   000027                     ___fldiv@grs:
   798                           	callstack 0
   799                           
   800                           ; 4 bytes @ 0x26
   801   000027                     	ds	4
   802   00002B                     ___fldiv@bexp:
   803                           	callstack 0
   804                           
   805                           ; 1 bytes @ 0x2A
   806   00002B                     	ds	1
   807   00002C                     ___fldiv@aexp:
   808                           	callstack 0
   809                           
   810                           ; 1 bytes @ 0x2B
   811   00002C                     	ds	1
   812   00002D                     ?___fltol:
   813                           	callstack 0
   814   00002D                     ___fltol@f1:
   815                           	callstack 0
   816                           
   817                           ; 4 bytes @ 0x2C
   818   00002D                     	ds	4
   819   000031                     ??___fltol:
   820                           
   821                           ; 1 bytes @ 0x30
   822   000031                     	ds	4
   823   000035                     ___fltol@sign1:
   824                           	callstack 0
   825                           
   826                           ; 1 bytes @ 0x34
   827   000035                     	ds	1
   828   000036                     ___fltol@exp1:
   829                           	callstack 0
   830                           
   831                           ; 1 bytes @ 0x35
   832   000036                     	ds	1
   833   000037                     ??_main:
   834                           
   835                           ; 1 bytes @ 0x36
   836   000037                     	ds	2
   837   000039                     main@usAdc:
   838                           	callstack 0
   839                           
   840                           ; 2 bytes @ 0x38
   841   000039                     	ds	2
   842   00003B                     main@uc1Key:
   843                           	callstack 0
   844                           
   845                           ; 1 bytes @ 0x3A
   846   00003B                     	ds	1
   847   00003C                     main@ucKey:
   848                           	callstack 0
   849                           
   850                           ; 1 bytes @ 0x3B
   851   00003C                     	ds	1
   852                           
   853 ;;
   854 ;;Main: autosize = 0, tempsize = 2, incstack = 0, save=0
   855 ;;
   856 ;; *************** function _main *****************
   857 ;; Defined at:
   858 ;;		line 19 in file "main.c"
   859 ;; Parameters:    Size  Location     Type
   860 ;;		None
   861 ;; Auto vars:     Size  Location     Type
   862 ;;  usAdc           2   56[COMRAM] unsigned short 
   863 ;;  ucKey           1   59[COMRAM] unsigned char 
   864 ;;  uc1Key          1   58[COMRAM] unsigned char 
   865 ;; Return value:  Size  Location     Type
   866 ;;                  1    wreg      void 
   867 ;; Registers used:
   868 ;;		wreg, fsr1l, fsr1h, fsr2l, fsr2h, status,2, status,0, tblptrl, tblptrh, tblptru, prodl, prodh, cstack
   869 ;; Tracked objects:
   870 ;;		On entry : 0/0
   871 ;;		On exit  : 0/0
   872 ;;		Unchanged: 0/0
   873 ;; Data sizes:     COMRAM   BANK0   BANK1   BANK2   BANK3   BANK4   BANK5
   874 ;;      Params:         0       0       0       0       0       0       0
   875 ;;      Locals:         4       0       0       0       0       0       0
   876 ;;      Temps:          2       0       0       0       0       0       0
   877 ;;      Totals:         6       0       0       0       0       0       0
   878 ;;Total ram usage:        6 bytes
   879 ;; Hardware stack levels required when called: 5
   880 ;; This function calls:
   881 ;;		___fldiv
   882 ;;		___fltol
   883 ;;		___xxtofl
   884 ;;		_clcd_write
   885 ;;		_display_dashboard
   886 ;;		_init_config
   887 ;;		_logscreen
   888 ;;		_read_adc
   889 ;;		_read_switches
   890 ;;		_scrolllog
   891 ;; This function is called by:
   892 ;;		Startup code after reset
   893 ;; This function uses a non-reentrant model
   894 ;;
   895                           
   896                           	psect	text0
   897   00088A                     __ptext0:
   898                           	callstack 0
   899   00088A                     _main:
   900                           	callstack 26
   901   00088A                     
   902                           ;main.c: 20:     init_config();
   903   00088A  EC75  F009         	call	_init_config	;wreg free
   904   00088E                     l32:
   905                           
   906                           ;main.c: 24:         usAdc = (unsigned short)(read_adc(4)/10.33);
   907   00088E  0EAE               	movlw	174
   908   000890  6E18               	movwf	___fldiv@a^0,c
   909   000892  0E47               	movlw	71
   910   000894  6E19               	movwf	(___fldiv@a+1)^0,c
   911   000896  0E25               	movlw	37
   912   000898  6E1A               	movwf	(___fldiv@a+2)^0,c
   913   00089A  0E41               	movlw	65
   914   00089C  6E1B               	movwf	(___fldiv@a+3)^0,c
   915   00089E  0E04               	movlw	4
   916   0008A0  ECE1  F008         	call	_read_adc
   917   0008A4  C001  F006         	movff	?_read_adc,___xxtofl@val
   918   0008A8  C002  F007         	movff	?_read_adc+1,___xxtofl@val+1
   919   0008AC  6A08               	clrf	(___xxtofl@val+2)^0,c
   920   0008AE  6A09               	clrf	(___xxtofl@val+3)^0,c
   921   0008B0  0E00               	movlw	0
   922   0008B2  EC6B  F003         	call	___xxtofl
   923   0008B6  C006  F014         	movff	?___xxtofl,___fldiv@b
   924   0008BA  C007  F015         	movff	?___xxtofl+1,___fldiv@b+1
   925   0008BE  C008  F016         	movff	?___xxtofl+2,___fldiv@b+2
   926   0008C2  C009  F017         	movff	?___xxtofl+3,___fldiv@b+3
   927   0008C6  EC09  F000         	call	___fldiv	;wreg free
   928   0008CA  C014  F02D         	movff	?___fldiv,___fltol@f1
   929   0008CE  C015  F02E         	movff	?___fldiv+1,___fltol@f1+1
   930   0008D2  C016  F02F         	movff	?___fldiv+2,___fltol@f1+2
   931   0008D6  C017  F030         	movff	?___fldiv+3,___fltol@f1+3
   932   0008DA  ECE0  F004         	call	___fltol	;wreg free
   933   0008DE  C02D  F039         	movff	?___fltol,main@usAdc
   934   0008E2  C02E  F03A         	movff	?___fltol+1,main@usAdc+1
   935                           
   936                           ;main.c: 25:         ucKey = read_switches(1);
   937   0008E6  0E01               	movlw	1
   938   0008E8  EC9A  F007         	call	_read_switches
   939   0008EC  6E3C               	movwf	main@ucKey^0,c
   940                           
   941                           ;main.c: 26:         uc1Key = read_switches(0);
   942   0008EE  0E00               	movlw	0
   943   0008F0  EC9A  F007         	call	_read_switches
   944   0008F4  6E3B               	movwf	main@uc1Key^0,c
   945   0008F6                     
   946                           ;main.c: 27:         if(uc1Key == 12)
   947   0008F6  0E0C               	movlw	12
   948   0008F8  183B               	xorwf	main@uc1Key^0,w,c
   949   0008FA  A4D8               	btfss	status,2,c
   950   0008FC  EF82  F004         	goto	u1831
   951   000900  EF84  F004         	goto	u1830
   952   000904                     u1831:
   953   000904  EF9A  F004         	goto	l2286
   954   000908                     u1830:
   955   000908                     
   956                           ;main.c: 28:         {;main.c: 29:             if(logout++ == 1000)
   957   000908  4A4D               	infsnz	_logout^0,f,c
   958   00090A  2A4E               	incf	(_logout+1)^0,f,c
   959   00090C  0EE9               	movlw	233
   960   00090E  184D               	xorwf	_logout^0,w,c
   961   000910  E107               	bnz	u1841
   962   000912  0E03               	movlw	3
   963   000914  184E               	xorwf	(_logout+1)^0,w,c
   964   000916  A4D8               	btfss	status,2,c
   965   000918  EF90  F004         	goto	u1841
   966   00091C  EF92  F004         	goto	u1840
   967   000920                     u1841:
   968   000920  EF9A  F004         	goto	l2286
   969   000924                     u1840:
   970   000924                     
   971                           ;main.c: 30:             {;main.c: 31:                 logout=0;
   972   000924  0E00               	movlw	0
   973   000926  6E4E               	movwf	(_logout+1)^0,c
   974   000928  0E00               	movlw	0
   975   00092A  6E4D               	movwf	_logout^0,c
   976                           
   977                           ;main.c: 32:                 controlflag=1;
   978   00092C  0E00               	movlw	0
   979   00092E  6E58               	movwf	(_controlflag+1)^0,c
   980   000930  0E01               	movlw	1
   981   000932  6E57               	movwf	_controlflag^0,c
   982   000934                     l2286:
   983                           
   984                           ;main.c: 35:         if(ucKey == 10)
   985   000934  0E0A               	movlw	10
   986   000936  183C               	xorwf	main@ucKey^0,w,c
   987   000938  A4D8               	btfss	status,2,c
   988   00093A  EFA1  F004         	goto	u1851
   989   00093E  EFA3  F004         	goto	u1850
   990   000942                     u1851:
   991   000942  EFC0  F004         	goto	l2300
   992   000946                     u1850:
   993   000946                     
   994                           ;main.c: 36:         {;main.c: 37:             controlflag=0;
   995   000946  0E00               	movlw	0
   996   000948  6E58               	movwf	(_controlflag+1)^0,c
   997   00094A  0E00               	movlw	0
   998   00094C  6E57               	movwf	_controlflag^0,c
   999   00094E                     
  1000                           ;main.c: 38:             clcd_write(0x01, 0);
  1001   00094E  0E00               	movlw	0
  1002   000950  6E01               	movwf	clcd_write@control_bit^0,c
  1003   000952  0E01               	movlw	1
  1004   000954  ECFC  F008         	call	_clcd_write
  1005   000958  EFC0  F004         	goto	l2300
  1006   00095C                     l2292:
  1007                           
  1008                           ;main.c: 43:                 logscreen(ucKey);
  1009   00095C  503C               	movf	main@ucKey^0,w,c
  1010   00095E  ECD6  F001         	call	_logscreen
  1011                           
  1012                           ;main.c: 44:                 break;
  1013   000962  EF47  F004         	goto	l32
  1014   000966                     l2294:
  1015                           
  1016                           ;main.c: 46:                 display_dashboard(ucKey, usAdc);
  1017   000966  C039  F014         	movff	main@usAdc,display_dashboard@usads
  1018   00096A  C03A  F015         	movff	main@usAdc+1,display_dashboard@usads+1
  1019   00096E  503C               	movf	main@ucKey^0,w,c
  1020   000970  EC15  F009         	call	_display_dashboard
  1021                           
  1022                           ;main.c: 47:                 break;
  1023   000974  EF47  F004         	goto	l32
  1024   000978                     l2296:
  1025                           
  1026                           ;main.c: 49:                 scrolllog();
  1027   000978  EC3C  F009         	call	_scrolllog	;wreg free
  1028   00097C  EF47  F004         	goto	l32
  1029   000980                     l2300:
  1030   000980  C057  F037         	movff	_controlflag,??_main
  1031   000984  C058  F038         	movff	_controlflag+1,??_main+1
  1032                           
  1033                           ; Switch on 2 bytes has been partitioned into a top level switch of size 1, and 1 sub-sw
      +                          itches
  1034                           ; Switch size 1, requested type "simple"
  1035                           ; Number of cases is 1, Range of values is 0 to 0
  1036                           ; switch strategies available:
  1037                           ; Name         Instructions Cycles
  1038                           ; simple_byte            4     3 (average)
  1039                           ;	Chosen strategy is simple_byte
  1040   000988  5038               	movf	(??_main+1)^0,w,c
  1041   00098A  0A00               	xorlw	0	; case 0
  1042   00098C  B4D8               	btfsc	status,2,c
  1043   00098E  EFCB  F004         	goto	l2336
  1044   000992  EF47  F004         	goto	l32
  1045   000996                     l2336:
  1046                           
  1047                           ; Switch size 1, requested type "simple"
  1048                           ; Number of cases is 4, Range of values is 0 to 4
  1049                           ; switch strategies available:
  1050                           ; Name         Instructions Cycles
  1051                           ; simple_byte           13     7 (average)
  1052                           ;	Chosen strategy is simple_byte
  1053   000996  5037               	movf	??_main^0,w,c
  1054   000998  0A00               	xorlw	0	; case 0
  1055   00099A  B4D8               	btfsc	status,2,c
  1056   00099C  EFAE  F004         	goto	l2292
  1057   0009A0  0A01               	xorlw	1	; case 1
  1058   0009A2  B4D8               	btfsc	status,2,c
  1059   0009A4  EFB3  F004         	goto	l2294
  1060   0009A8  0A02               	xorlw	2	; case 3
  1061   0009AA  B4D8               	btfsc	status,2,c
  1062   0009AC  EF47  F004         	goto	l32
  1063   0009B0  0A07               	xorlw	7	; case 4
  1064   0009B2  B4D8               	btfsc	status,2,c
  1065   0009B4  EFBC  F004         	goto	l2296
  1066   0009B8  EF47  F004         	goto	l32
  1067   0009BC  EF07  F000         	goto	start
  1068   0009C0                     __end_of_main:
  1069                           	callstack 0
  1070                           
  1071 ;; *************** function _scrolllog *****************
  1072 ;; Defined at:
  1073 ;;		line 4 in file "scrolldisplay.c"
  1074 ;; Parameters:    Size  Location     Type
  1075 ;;		None
  1076 ;; Auto vars:     Size  Location     Type
  1077 ;;		None
  1078 ;; Return value:  Size  Location     Type
  1079 ;;                  1    wreg      void 
  1080 ;; Registers used:
  1081 ;;		wreg, status,2, status,0, tblptrl, tblptrh, tblptru, cstack
  1082 ;; Tracked objects:
  1083 ;;		On entry : 0/0
  1084 ;;		On exit  : 0/0
  1085 ;;		Unchanged: 0/0
  1086 ;; Data sizes:     COMRAM   BANK0   BANK1   BANK2   BANK3   BANK4   BANK5
  1087 ;;      Params:         0       0       0       0       0       0       0
  1088 ;;      Locals:         0       0       0       0       0       0       0
  1089 ;;      Temps:          0       0       0       0       0       0       0
  1090 ;;      Totals:         0       0       0       0       0       0       0
  1091 ;;Total ram usage:        0 bytes
  1092 ;; Hardware stack levels used: 1
  1093 ;; Hardware stack levels required when called: 3
  1094 ;; This function calls:
  1095 ;;		_clcd_print
  1096 ;; This function is called by:
  1097 ;;		_main
  1098 ;; This function uses a non-reentrant model
  1099 ;;
  1100                           
  1101                           	psect	text1
  1102   001278                     __ptext1:
  1103                           	callstack 0
  1104   001278                     _scrolllog:
  1105                           	callstack 27
  1106   001278                     
  1107                           ;scrolldisplay.c: 6:     clcd_print( (unsigned char*) " Scroll display ", (0x80 + (0)));
  1108   001278  0E2A               	movlw	low STR_26
  1109   00127A  6E03               	movwf	clcd_print@data^0,c
  1110   00127C  0E7F               	movlw	high STR_26
  1111   00127E  6E04               	movwf	(clcd_print@data+1)^0,c
  1112   001280  0E80               	movlw	128
  1113   001282  6E05               	movwf	clcd_print@addr^0,c
  1114   001284  ECBF  F008         	call	_clcd_print	;wreg free
  1115                           
  1116                           ;scrolldisplay.c: 7:     clcd_print( (unsigned char*) " Scroll display ", (0xC0 + (0)));
  1117   001288  0E2A               	movlw	low STR_26
  1118   00128A  6E03               	movwf	clcd_print@data^0,c
  1119   00128C  0E7F               	movlw	high STR_26
  1120   00128E  6E04               	movwf	(clcd_print@data+1)^0,c
  1121   001290  0EC0               	movlw	192
  1122   001292  6E05               	movwf	clcd_print@addr^0,c
  1123   001294  ECBF  F008         	call	_clcd_print	;wreg free
  1124   001298  0012               	return		;funcret
  1125   00129A                     __end_of_scrolllog:
  1126                           	callstack 0
  1127                           
  1128 ;; *************** function _read_switches *****************
  1129 ;; Defined at:
  1130 ;;		line 10 in file "matrixkeyboard.c"
  1131 ;; Parameters:    Size  Location     Type
  1132 ;;  ucdetection     1    wreg     unsigned char 
  1133 ;; Auto vars:     Size  Location     Type
  1134 ;;  ucdetection     1    0[COMRAM] unsigned char 
  1135 ;; Return value:  Size  Location     Type
  1136 ;;                  1    wreg      unsigned char 
  1137 ;; Registers used:
  1138 ;;		wreg, status,2, status,0, cstack
  1139 ;; Tracked objects:
  1140 ;;		On entry : 0/0
  1141 ;;		On exit  : 0/0
  1142 ;;		Unchanged: 0/0
  1143 ;; Data sizes:     COMRAM   BANK0   BANK1   BANK2   BANK3   BANK4   BANK5
  1144 ;;      Params:         0       0       0       0       0       0       0
  1145 ;;      Locals:         1       0       0       0       0       0       0
  1146 ;;      Temps:          0       0       0       0       0       0       0
  1147 ;;      Totals:         1       0       0       0       0       0       0
  1148 ;;Total ram usage:        1 bytes
  1149 ;; Hardware stack levels used: 1
  1150 ;; Hardware stack levels required when called: 2
  1151 ;; This function calls:
  1152 ;;		_scan_key
  1153 ;; This function is called by:
  1154 ;;		_main
  1155 ;; This function uses a non-reentrant model
  1156 ;;
  1157                           
  1158                           	psect	text2
  1159   000F34                     __ptext2:
  1160                           	callstack 0
  1161   000F34                     _read_switches:
  1162                           	callstack 28
  1163                           
  1164                           ;incstack = 0
  1165                           ;read_switches@ucdetection stored from wreg
  1166   000F34  6E01               	movwf	read_switches@ucdetection^0,c
  1167   000F36                     
  1168                           ;matrixkeyboard.c: 10: unsigned char read_switches(unsigned char ucdetection);matrixkeyb
      +                          oard.c: 11: {;matrixkeyboard.c: 12:     static unsigned char uconce=1, uckey;;matrixkeyb
      +                          oard.c: 13:     if(ucdetection ==0 )
  1169   000F36  5001               	movf	read_switches@ucdetection^0,w,c
  1170   000F38  A4D8               	btfss	status,2,c
  1171   000F3A  EFA1  F007         	goto	u361
  1172   000F3E  EFA3  F007         	goto	u360
  1173   000F42                     u361:
  1174   000F42  EFA7  F007         	goto	l1298
  1175   000F46                     u360:
  1176   000F46                     
  1177                           ;matrixkeyboard.c: 14:         return scan_key();
  1178   000F46  EC52  F007         	call	_scan_key	;wreg free
  1179   000F4A  EFD4  F007         	goto	l178
  1180   000F4E                     l1298:
  1181   000F4E  0401               	decf	read_switches@ucdetection^0,w,c
  1182   000F50  A4D8               	btfss	status,2,c
  1183   000F52  EFAD  F007         	goto	u371
  1184   000F56  EFAF  F007         	goto	u370
  1185   000F5A                     u371:
  1186   000F5A  EFD3  F007         	goto	l1316
  1187   000F5E                     u370:
  1188   000F5E                     
  1189                           ;matrixkeyboard.c: 16:     {;matrixkeyboard.c: 17:         uckey = scan_key();
  1190   000F5E  EC52  F007         	call	_scan_key	;wreg free
  1191   000F62  6E50               	movwf	read_switches@uckey^0,c
  1192   000F64                     
  1193                           ;matrixkeyboard.c: 18:         if((uckey != 0xFF) && uconce)
  1194   000F64  2850               	incf	read_switches@uckey^0,w,c
  1195   000F66  B4D8               	btfsc	status,2,c
  1196   000F68  EFB8  F007         	goto	u381
  1197   000F6C  EFBA  F007         	goto	u380
  1198   000F70                     u381:
  1199   000F70  EFC7  F007         	goto	l1312
  1200   000F74                     u380:
  1201   000F74  5059               	movf	read_switches@uconce^0,w,c
  1202   000F76  B4D8               	btfsc	status,2,c
  1203   000F78  EFC0  F007         	goto	u391
  1204   000F7C  EFC2  F007         	goto	u390
  1205   000F80                     u391:
  1206   000F80  EFC7  F007         	goto	l1312
  1207   000F84                     u390:
  1208   000F84                     
  1209                           ;matrixkeyboard.c: 19:         {;matrixkeyboard.c: 20:             uconce=0;
  1210   000F84  0E00               	movlw	0
  1211   000F86  6E59               	movwf	read_switches@uconce^0,c
  1212                           
  1213                           ;matrixkeyboard.c: 21:             return uckey;
  1214   000F88  5050               	movf	read_switches@uckey^0,w,c
  1215   000F8A  EFD4  F007         	goto	l178
  1216   000F8E                     l1312:
  1217   000F8E  2850               	incf	read_switches@uckey^0,w,c
  1218   000F90  A4D8               	btfss	status,2,c
  1219   000F92  EFCD  F007         	goto	u401
  1220   000F96  EFCF  F007         	goto	u400
  1221   000F9A                     u401:
  1222   000F9A  EFD3  F007         	goto	l180
  1223   000F9E                     u400:
  1224   000F9E                     
  1225                           ;matrixkeyboard.c: 24:             uconce = 1;
  1226   000F9E  0E01               	movlw	1
  1227   000FA0  6E59               	movwf	read_switches@uconce^0,c
  1228   000FA2  EFD3  F007         	goto	l1316
  1229   000FA6                     l180:
  1230   000FA6                     l1316:
  1231                           
  1232                           ;matrixkeyboard.c: 26:     return 0xFF;
  1233   000FA6  0EFF               	movlw	255
  1234   000FA8                     l178:
  1235   000FA8  0012               	return		;funcret
  1236   000FAA                     __end_of_read_switches:
  1237                           	callstack 0
  1238                           
  1239 ;; *************** function _scan_key *****************
  1240 ;; Defined at:
  1241 ;;		line 29 in file "matrixkeyboard.c"
  1242 ;; Parameters:    Size  Location     Type
  1243 ;;		None
  1244 ;; Auto vars:     Size  Location     Type
  1245 ;;		None
  1246 ;; Return value:  Size  Location     Type
  1247 ;;                  1    wreg      unsigned char 
  1248 ;; Registers used:
  1249 ;;		wreg
  1250 ;; Tracked objects:
  1251 ;;		On entry : 0/0
  1252 ;;		On exit  : 0/0
  1253 ;;		Unchanged: 0/0
  1254 ;; Data sizes:     COMRAM   BANK0   BANK1   BANK2   BANK3   BANK4   BANK5
  1255 ;;      Params:         0       0       0       0       0       0       0
  1256 ;;      Locals:         0       0       0       0       0       0       0
  1257 ;;      Temps:          0       0       0       0       0       0       0
  1258 ;;      Totals:         0       0       0       0       0       0       0
  1259 ;;Total ram usage:        0 bytes
  1260 ;; Hardware stack levels used: 1
  1261 ;; Hardware stack levels required when called: 1
  1262 ;; This function calls:
  1263 ;;		Nothing
  1264 ;; This function is called by:
  1265 ;;		_read_switches
  1266 ;; This function uses a non-reentrant model
  1267 ;;
  1268                           
  1269                           	psect	text3
  1270   000EA4                     __ptext3:
  1271                           	callstack 0
  1272   000EA4                     _scan_key:
  1273                           	callstack 28
  1274   000EA4                     
  1275                           ;matrixkeyboard.c: 31:     PORTBbits.RB5 = 0, PORTBbits.RB6 = 1, PORTBbits.RB7 = 1;
  1276   000EA4  9A81               	bcf	129,5,c	;volatile
  1277   000EA6  8C81               	bsf	129,6,c	;volatile
  1278   000EA8  8E81               	bsf	129,7,c	;volatile
  1279                           
  1280                           ;matrixkeyboard.c: 32:     if( PORTBbits.RB1 == 0)
  1281   000EAA  B281               	btfsc	129,1,c	;volatile
  1282   000EAC  EF5A  F007         	goto	u261
  1283   000EB0  EF5C  F007         	goto	u260
  1284   000EB4                     u261:
  1285   000EB4  EF5F  F007         	goto	l186
  1286   000EB8                     u260:
  1287   000EB8                     
  1288                           ;matrixkeyboard.c: 33:         return 1;
  1289   000EB8  0E01               	movlw	1
  1290   000EBA  EF99  F007         	goto	l187
  1291   000EBE                     l186:
  1292   000EBE  B881               	btfsc	129,4,c	;volatile
  1293   000EC0  EF64  F007         	goto	u271
  1294   000EC4  EF66  F007         	goto	u270
  1295   000EC8                     u271:
  1296   000EC8  EF69  F007         	goto	l188
  1297   000ECC                     u270:
  1298   000ECC                     
  1299                           ;matrixkeyboard.c: 39:         return 10;
  1300   000ECC  0E0A               	movlw	10
  1301   000ECE  EF99  F007         	goto	l187
  1302   000ED2                     l188:
  1303                           
  1304                           ;matrixkeyboard.c: 41:     PORTBbits.RB5 = 1, PORTBbits.RB6 = 0, PORTBbits.RB7 = 1;
  1305   000ED2  8A81               	bsf	129,5,c	;volatile
  1306   000ED4  9C81               	bcf	129,6,c	;volatile
  1307   000ED6  8E81               	bsf	129,7,c	;volatile
  1308                           
  1309                           ;matrixkeyboard.c: 42:     if( PORTBbits.RB1 == 0)
  1310   000ED8  B281               	btfsc	129,1,c	;volatile
  1311   000EDA  EF71  F007         	goto	u281
  1312   000EDE  EF73  F007         	goto	u280
  1313   000EE2                     u281:
  1314   000EE2  EF76  F007         	goto	l190
  1315   000EE6                     u280:
  1316   000EE6                     
  1317                           ;matrixkeyboard.c: 43:         return 2;
  1318   000EE6  0E02               	movlw	2
  1319   000EE8  EF99  F007         	goto	l187
  1320   000EEC                     l190:
  1321   000EEC  B881               	btfsc	129,4,c	;volatile
  1322   000EEE  EF7B  F007         	goto	u291
  1323   000EF2  EF7D  F007         	goto	u290
  1324   000EF6                     u291:
  1325   000EF6  EF80  F007         	goto	l191
  1326   000EFA                     u290:
  1327   000EFA                     
  1328                           ;matrixkeyboard.c: 49:         return 11;
  1329   000EFA  0E0B               	movlw	11
  1330   000EFC  EF99  F007         	goto	l187
  1331   000F00                     l191:
  1332                           
  1333                           ;matrixkeyboard.c: 51:     PORTBbits.RB5 = 1, PORTBbits.RB6 = 1, PORTBbits.RB7 = 0, PORT
      +                          Bbits.RB7 = 0;
  1334   000F00  8A81               	bsf	129,5,c	;volatile
  1335   000F02  8C81               	bsf	129,6,c	;volatile
  1336   000F04  9E81               	bcf	129,7,c	;volatile
  1337   000F06  9E81               	bcf	129,7,c	;volatile
  1338                           
  1339                           ;matrixkeyboard.c: 52:     if( PORTBbits.RB1 == 0)
  1340   000F08  B281               	btfsc	129,1,c	;volatile
  1341   000F0A  EF89  F007         	goto	u301
  1342   000F0E  EF8B  F007         	goto	u300
  1343   000F12                     u301:
  1344   000F12  EF8E  F007         	goto	l193
  1345   000F16                     u300:
  1346   000F16                     
  1347                           ;matrixkeyboard.c: 53:         return 3;
  1348   000F16  0E03               	movlw	3
  1349   000F18  EF99  F007         	goto	l187
  1350   000F1C                     l193:
  1351   000F1C  B881               	btfsc	129,4,c	;volatile
  1352   000F1E  EF93  F007         	goto	u311
  1353   000F22  EF95  F007         	goto	u310
  1354   000F26                     u311:
  1355   000F26  EF98  F007         	goto	l1246
  1356   000F2A                     u310:
  1357   000F2A                     
  1358                           ;matrixkeyboard.c: 59:         return 12;
  1359   000F2A  0E0C               	movlw	12
  1360   000F2C  EF99  F007         	goto	l187
  1361   000F30                     l1246:
  1362                           
  1363                           ;matrixkeyboard.c: 61:         return 0xFF;
  1364   000F30  0EFF               	movlw	255
  1365   000F32                     l187:
  1366   000F32  0012               	return		;funcret
  1367   000F34                     __end_of_scan_key:
  1368                           	callstack 0
  1369                           
  1370 ;; *************** function _read_adc *****************
  1371 ;; Defined at:
  1372 ;;		line 12 in file "adc.c"
  1373 ;; Parameters:    Size  Location     Type
  1374 ;;  channel         1    wreg     unsigned char 
  1375 ;; Auto vars:     Size  Location     Type
  1376 ;;  channel         1    4[COMRAM] unsigned char 
  1377 ;; Return value:  Size  Location     Type
  1378 ;;                  2    0[COMRAM] unsigned short 
  1379 ;; Registers used:
  1380 ;;		wreg, status,2, status,0
  1381 ;; Tracked objects:
  1382 ;;		On entry : 0/0
  1383 ;;		On exit  : 0/0
  1384 ;;		Unchanged: 0/0
  1385 ;; Data sizes:     COMRAM   BANK0   BANK1   BANK2   BANK3   BANK4   BANK5
  1386 ;;      Params:         2       0       0       0       0       0       0
  1387 ;;      Locals:         1       0       0       0       0       0       0
  1388 ;;      Temps:          2       0       0       0       0       0       0
  1389 ;;      Totals:         5       0       0       0       0       0       0
  1390 ;;Total ram usage:        5 bytes
  1391 ;; Hardware stack levels used: 1
  1392 ;; Hardware stack levels required when called: 1
  1393 ;; This function calls:
  1394 ;;		Nothing
  1395 ;; This function is called by:
  1396 ;;		_main
  1397 ;; This function uses a non-reentrant model
  1398 ;;
  1399                           
  1400                           	psect	text4
  1401   0011C2                     __ptext4:
  1402                           	callstack 0
  1403   0011C2                     _read_adc:
  1404                           	callstack 29
  1405                           
  1406                           ;incstack = 0
  1407                           ;read_adc@channel stored from wreg
  1408   0011C2  6E05               	movwf	read_adc@channel^0,c
  1409   0011C4                     
  1410                           ;adc.c: 12: unsigned short read_adc(unsigned char channel);adc.c: 13: {;adc.c: 14:     A
      +                          DCON0=(ADCON0 & 0xC3) |(unsigned char)(channel<<2);
  1411   0011C4  C005  F003         	movff	read_adc@channel,??_read_adc
  1412   0011C8  90D8               	bcf	status,0,c
  1413   0011CA  3603               	rlcf	??_read_adc^0,f,c
  1414   0011CC  90D8               	bcf	status,0,c
  1415   0011CE  3603               	rlcf	??_read_adc^0,f,c
  1416   0011D0  50C2               	movf	194,w,c	;volatile
  1417   0011D2  0BC3               	andlw	195
  1418   0011D4  1003               	iorwf	??_read_adc^0,w,c
  1419   0011D6  6EC2               	movwf	194,c	;volatile
  1420   0011D8                     
  1421                           ;adc.c: 15:     GO=1;
  1422   0011D8  82C2               	bsf	4034,1,c	;volatile
  1423   0011DA                     l86:
  1424   0011DA  B2C2               	btfsc	4034,1,c	;volatile
  1425   0011DC  EFF2  F008         	goto	u1281
  1426   0011E0  EFF4  F008         	goto	u1280
  1427   0011E4                     u1281:
  1428   0011E4  EFED  F008         	goto	l86
  1429   0011E8                     u1280:
  1430   0011E8                     
  1431                           ;adc.c: 17:     return (unsigned short) ADRESL | (unsigned short)((ADRESH & 0x03) << 8);
  1432   0011E8  50C4               	movf	196,w,c	;volatile
  1433   0011EA  0B03               	andlw	3
  1434   0011EC  6E03               	movwf	??_read_adc^0,c
  1435   0011EE  50C3               	movf	195,w,c	;volatile
  1436   0011F0  6E01               	movwf	?_read_adc^0,c
  1437   0011F2  C003  F002         	movff	??_read_adc,?_read_adc+1
  1438   0011F6  0012               	return		;funcret
  1439   0011F8                     __end_of_read_adc:
  1440                           	callstack 0
  1441                           
  1442 ;; *************** function _logscreen *****************
  1443 ;; Defined at:
  1444 ;;		line 11 in file "password.c"
  1445 ;; Parameters:    Size  Location     Type
  1446 ;;  key             1    wreg     unsigned char 
  1447 ;; Auto vars:     Size  Location     Type
  1448 ;;  key             1   16[COMRAM] unsigned char 
  1449 ;; Return value:  Size  Location     Type
  1450 ;;                  1    wreg      void 
  1451 ;; Registers used:
  1452 ;;		wreg, fsr1l, fsr1h, fsr2l, fsr2h, status,2, status,0, tblptrl, tblptrh, tblptru, cstack
  1453 ;; Tracked objects:
  1454 ;;		On entry : 0/0
  1455 ;;		On exit  : 0/0
  1456 ;;		Unchanged: 0/0
  1457 ;; Data sizes:     COMRAM   BANK0   BANK1   BANK2   BANK3   BANK4   BANK5
  1458 ;;      Params:         0       0       0       0       0       0       0
  1459 ;;      Locals:         1       0       0       0       0       0       0
  1460 ;;      Temps:          0       0       0       0       0       0       0
  1461 ;;      Totals:         1       0       0       0       0       0       0
  1462 ;;Total ram usage:        1 bytes
  1463 ;; Hardware stack levels used: 1
  1464 ;; Hardware stack levels required when called: 4
  1465 ;; This function calls:
  1466 ;;		_clcd_print
  1467 ;;		_clcd_putch
  1468 ;;		_clcd_write
  1469 ;;		_mystrcmp
  1470 ;;		_timeleft
  1471 ;; This function is called by:
  1472 ;;		_main
  1473 ;; This function uses a non-reentrant model
  1474 ;;
  1475                           
  1476                           	psect	text5
  1477   0003AC                     __ptext5:
  1478                           	callstack 0
  1479   0003AC                     _logscreen:
  1480                           	callstack 26
  1481                           
  1482                           ;incstack = 0
  1483                           ;logscreen@key stored from wreg
  1484   0003AC  6E11               	movwf	logscreen@key^0,c
  1485   0003AE                     
  1486                           ;password.c: 11: void logscreen(unsigned char key);password.c: 12: {;password.c: 13:    
      +                               uckey[4]='\0';
  1487   0003AE  0E00               	movlw	0
  1488   0003B0  0100               	movlb	0	; () banked
  1489   0003B2  6F87               	movwf	(_uckey+4)& (0+255),b
  1490   0003B4                     
  1491                           ; BSR set to: 0
  1492                           ;password.c: 14:         if(enterflag==0)
  1493   0003B4  5043               	movf	_enterflag^0,w,c
  1494   0003B6  1044               	iorwf	(_enterflag+1)^0,w,c
  1495   0003B8  A4D8               	btfss	status,2,c
  1496   0003BA  EFE1  F001         	goto	u1291
  1497   0003BE  EFE3  F001         	goto	u1290
  1498   0003C2                     u1291:
  1499   0003C2  EFEB  F001         	goto	l1950
  1500   0003C6                     u1290:
  1501   0003C6                     
  1502                           ; BSR set to: 0
  1503                           ;password.c: 15:             clcd_print( (unsigned char*) " Enter Password ", (0x80 + (0
      +                          )));
  1504   0003C6  0E5D               	movlw	low STR_11
  1505   0003C8  6E03               	movwf	clcd_print@data^0,c
  1506   0003CA  0E7F               	movlw	high STR_11
  1507   0003CC  6E04               	movwf	(clcd_print@data+1)^0,c
  1508   0003CE  0E80               	movlw	128
  1509   0003D0  6E05               	movwf	clcd_print@addr^0,c
  1510   0003D2  ECBF  F008         	call	_clcd_print	;wreg free
  1511   0003D6                     l1950:
  1512                           
  1513                           ;password.c: 16:         if(tryflag>0)
  1514   0003D6  5053               	movf	_tryflag^0,w,c
  1515   0003D8  1054               	iorwf	(_tryflag+1)^0,w,c
  1516   0003DA  B4D8               	btfsc	status,2,c
  1517   0003DC  EFF2  F001         	goto	u1301
  1518   0003E0  EFF4  F001         	goto	u1300
  1519   0003E4                     u1301:
  1520   0003E4  EF40  F003         	goto	l2024
  1521   0003E8                     u1300:
  1522   0003E8                     
  1523                           ;password.c: 17:         {;password.c: 18:              if(i<4)
  1524   0003E8  0E04               	movlw	4
  1525   0003EA  604F               	cpfslt	_i^0,c
  1526   0003EC  EFFA  F001         	goto	u1311
  1527   0003F0  EFFC  F001         	goto	u1310
  1528   0003F4                     u1311:
  1529   0003F4  EF99  F002         	goto	l1990
  1530   0003F8                     u1310:
  1531   0003F8                     
  1532                           ;password.c: 19:              {;password.c: 20:                  if(!(notpressed--))
  1533   0003F8  0100               	movlb	0	; () banked
  1534   0003FA  077A               	decf	_notpressed& (0+255),f,b
  1535   0003FC  0E00               	movlw	0
  1536   0003FE  5B7B               	subwfb	(_notpressed+1)& (0+255),f,b
  1537   000400  5B7C               	subwfb	(_notpressed+2)& (0+255),f,b
  1538   000402  5B7D               	subwfb	(_notpressed+3)& (0+255),f,b
  1539   000404  297A               	incf	_notpressed& (0+255),w,b
  1540   000406  E10A               	bnz	u1321
  1541   000408  297B               	incf	(_notpressed+1)& (0+255),w,b
  1542   00040A  E108               	bnz	u1321
  1543   00040C  297C               	incf	(_notpressed+2)& (0+255),w,b
  1544   00040E  E106               	bnz	u1321
  1545   000410  297D               	incf	(_notpressed+3)& (0+255),w,b
  1546   000412  A4D8               	btfss	status,2,c
  1547   000414  EF0E  F002         	goto	u1321
  1548   000418  EF10  F002         	goto	u1320
  1549   00041C                     u1321:
  1550   00041C  EF24  F002         	goto	l1960
  1551   000420                     u1320:
  1552   000420                     
  1553                           ; BSR set to: 0
  1554                           ;password.c: 21:                  {;password.c: 22:                      notpressed=1000
      +                          0;
  1555   000420  0E10               	movlw	16
  1556   000422  6F7A               	movwf	_notpressed& (0+255),b
  1557   000424  0E27               	movlw	39
  1558   000426  6F7B               	movwf	(_notpressed+1)& (0+255),b
  1559   000428  0E00               	movlw	0
  1560   00042A  6F7C               	movwf	(_notpressed+2)& (0+255),b
  1561   00042C  0E00               	movlw	0
  1562   00042E  6F7D               	movwf	(_notpressed+3)& (0+255),b
  1563                           
  1564                           ;password.c: 23:                      i=0, tryflag=0;
  1565   000430  0E00               	movlw	0
  1566   000432  6E4F               	movwf	_i^0,c
  1567   000434  0E00               	movlw	0
  1568   000436  6E54               	movwf	(_tryflag+1)^0,c
  1569   000438  0E00               	movlw	0
  1570   00043A  6E53               	movwf	_tryflag^0,c
  1571                           
  1572                           ;password.c: 24:                      controlflag=1;
  1573   00043C  0E00               	movlw	0
  1574   00043E  6E58               	movwf	(_controlflag+1)^0,c
  1575   000440  0E01               	movlw	1
  1576   000442  6E57               	movwf	_controlflag^0,c
  1577   000444  EF6A  F003         	goto	l255
  1578   000448                     l1960:
  1579                           
  1580                           ; BSR set to: 0
  1581                           ;password.c: 27:                 compareflag=0;
  1582   000448  0E00               	movlw	0
  1583   00044A  6E42               	movwf	(_compareflag+1)^0,c
  1584   00044C  0E00               	movlw	0
  1585   00044E  6E41               	movwf	_compareflag^0,c
  1586   000450                     
  1587                           ; BSR set to: 0
  1588                           ;password.c: 28:                 if ((key != 0xFF) && key != 10)
  1589   000450  2811               	incf	logscreen@key^0,w,c
  1590   000452  B4D8               	btfsc	status,2,c
  1591   000454  EF2E  F002         	goto	u1331
  1592   000458  EF30  F002         	goto	u1330
  1593   00045C                     u1331:
  1594   00045C  EF54  F002         	goto	l1974
  1595   000460                     u1330:
  1596   000460                     
  1597                           ; BSR set to: 0
  1598   000460  0E0A               	movlw	10
  1599   000462  1811               	xorwf	logscreen@key^0,w,c
  1600   000464  B4D8               	btfsc	status,2,c
  1601   000466  EF37  F002         	goto	u1341
  1602   00046A  EF39  F002         	goto	u1340
  1603   00046E                     u1341:
  1604   00046E  EF54  F002         	goto	l1974
  1605   000472                     u1340:
  1606   000472                     
  1607                           ; BSR set to: 0
  1608                           ;password.c: 29:                 {;password.c: 30:                     notpressed=10000;
  1609   000472  0E10               	movlw	16
  1610   000474  6F7A               	movwf	_notpressed& (0+255),b
  1611   000476  0E27               	movlw	39
  1612   000478  6F7B               	movwf	(_notpressed+1)& (0+255),b
  1613   00047A  0E00               	movlw	0
  1614   00047C  6F7C               	movwf	(_notpressed+2)& (0+255),b
  1615   00047E  0E00               	movlw	0
  1616   000480  6F7D               	movwf	(_notpressed+3)& (0+255),b
  1617   000482                     
  1618                           ; BSR set to: 0
  1619                           ;password.c: 31:                     uckey[i]=key-11+48;
  1620   000482  0E83               	movlw	low _uckey
  1621   000484  244F               	addwf	_i^0,w,c
  1622   000486  6ED9               	movwf	fsr2l,c
  1623   000488  6ADA               	clrf	fsr2h,c
  1624   00048A  0E00               	movlw	high _uckey
  1625   00048C  22DA               	addwfc	fsr2h,f,c
  1626   00048E  5011               	movf	logscreen@key^0,w,c
  1627   000490  0F25               	addlw	37
  1628   000492  6EDF               	movwf	indf2,c
  1629   000494                     
  1630                           ; BSR set to: 0
  1631                           ;password.c: 32:                     clcd_putch(key-11+48, (0xC0 + (i+4)));
  1632   000494  504F               	movf	_i^0,w,c
  1633   000496  0FC4               	addlw	196
  1634   000498  6E0F               	movwf	clcd_putch@addr^0,c
  1635   00049A  5011               	movf	logscreen@key^0,w,c
  1636   00049C  0F25               	addlw	37
  1637   00049E  EC69  F009         	call	_clcd_putch
  1638   0004A2                     
  1639                           ;password.c: 33:                     i++;
  1640   0004A2  2A4F               	incf	_i^0,f,c
  1641                           
  1642                           ;password.c: 34:                 }
  1643   0004A4  EF9F  F002         	goto	l1992
  1644   0004A8                     l1974:
  1645                           
  1646                           ; BSR set to: 0
  1647                           ;password.c: 36:                 {;password.c: 37:                     if(blinkflag == 0
      +                          )
  1648   0004A8  5045               	movf	_blinkflag^0,w,c
  1649   0004AA  1046               	iorwf	(_blinkflag+1)^0,w,c
  1650   0004AC  A4D8               	btfss	status,2,c
  1651   0004AE  EF5B  F002         	goto	u1351
  1652   0004B2  EF5D  F002         	goto	u1350
  1653   0004B6                     u1351:
  1654   0004B6  EF9F  F002         	goto	l1992
  1655   0004BA                     u1350:
  1656   0004BA                     
  1657                           ; BSR set to: 0
  1658                           ;password.c: 38:                     {;password.c: 39:                         blink++;
  1659   0004BA  4A47               	infsnz	_blink^0,f,c
  1660   0004BC  2A48               	incf	(_blink+1)^0,f,c
  1661   0004BE                     
  1662                           ; BSR set to: 0
  1663                           ;password.c: 40:                         if(blink == 1600)
  1664   0004BE  0E40               	movlw	64
  1665   0004C0  1847               	xorwf	_blink^0,w,c
  1666   0004C2  E107               	bnz	u1361
  1667   0004C4  0E06               	movlw	6
  1668   0004C6  1848               	xorwf	(_blink+1)^0,w,c
  1669   0004C8  A4D8               	btfss	status,2,c
  1670   0004CA  EF69  F002         	goto	u1361
  1671   0004CE  EF6B  F002         	goto	u1360
  1672   0004D2                     u1361:
  1673   0004D2  EF71  F002         	goto	l1982
  1674   0004D6                     u1360:
  1675   0004D6                     
  1676                           ; BSR set to: 0
  1677                           ;password.c: 41:                             blink=0;
  1678   0004D6  0E00               	movlw	0
  1679   0004D8  6E48               	movwf	(_blink+1)^0,c
  1680   0004DA  0E00               	movlw	0
  1681   0004DC  6E47               	movwf	_blink^0,c
  1682   0004DE  EF9F  F002         	goto	l1992
  1683   0004E2                     l1982:
  1684                           
  1685                           ; BSR set to: 0
  1686   0004E2  0E20               	movlw	32
  1687   0004E4  5C47               	subwf	_blink^0,w,c
  1688   0004E6  0E03               	movlw	3
  1689   0004E8  5848               	subwfb	(_blink+1)^0,w,c
  1690   0004EA  B0D8               	btfsc	status,0,c
  1691   0004EC  EF7A  F002         	goto	u1371
  1692   0004F0  EF7C  F002         	goto	u1370
  1693   0004F4                     u1371:
  1694   0004F4  EF84  F002         	goto	l1986
  1695   0004F8                     u1370:
  1696   0004F8                     
  1697                           ; BSR set to: 0
  1698                           ;password.c: 43:                         {;password.c: 44:                             c
      +                          lcd_putch('_', (0xC0 + (i+4)));
  1699   0004F8  504F               	movf	_i^0,w,c
  1700   0004FA  0FC4               	addlw	196
  1701   0004FC  6E0F               	movwf	clcd_putch@addr^0,c
  1702   0004FE  0E5F               	movlw	95
  1703   000500  EC69  F009         	call	_clcd_putch
  1704                           
  1705                           ;password.c: 45:                         }
  1706   000504  EF9F  F002         	goto	l1992
  1707   000508                     l1986:
  1708                           
  1709                           ; BSR set to: 0
  1710   000508  0E20               	movlw	32
  1711   00050A  5C47               	subwf	_blink^0,w,c
  1712   00050C  0E03               	movlw	3
  1713   00050E  5848               	subwfb	(_blink+1)^0,w,c
  1714   000510  A0D8               	btfss	status,0,c
  1715   000512  EF8D  F002         	goto	u1381
  1716   000516  EF8F  F002         	goto	u1380
  1717   00051A                     u1381:
  1718   00051A  EF97  F002         	goto	l258
  1719   00051E                     u1380:
  1720   00051E                     
  1721                           ; BSR set to: 0
  1722                           ;password.c: 47:                         {;password.c: 48:                             c
      +                          lcd_putch(' ', (0xC0 + (i+4)));
  1723   00051E  504F               	movf	_i^0,w,c
  1724   000520  0FC4               	addlw	196
  1725   000522  6E0F               	movwf	clcd_putch@addr^0,c
  1726   000524  0E20               	movlw	32
  1727   000526  EC69  F009         	call	_clcd_putch
  1728   00052A  EF9F  F002         	goto	l1992
  1729   00052E                     l258:
  1730                           
  1731                           ; BSR set to: 0
  1732   00052E  EF9F  F002         	goto	l1992
  1733   000532                     l1990:
  1734                           
  1735                           ;password.c: 54:               {;password.c: 55:                 compareflag=1;
  1736   000532  0E00               	movlw	0
  1737   000534  6E42               	movwf	(_compareflag+1)^0,c
  1738   000536  0E01               	movlw	1
  1739   000538  6E41               	movwf	_compareflag^0,c
  1740                           
  1741                           ;password.c: 56:                 i=0;
  1742   00053A  0E00               	movlw	0
  1743   00053C  6E4F               	movwf	_i^0,c
  1744   00053E                     l1992:
  1745                           
  1746                           ;password.c: 58:               if(compareflag == 1)
  1747   00053E  0441               	decf	_compareflag^0,w,c
  1748   000540  1042               	iorwf	(_compareflag+1)^0,w,c
  1749   000542  A4D8               	btfss	status,2,c
  1750   000544  EFA6  F002         	goto	u1391
  1751   000548  EFA8  F002         	goto	u1390
  1752   00054C                     u1391:
  1753   00054C  EF6A  F003         	goto	l255
  1754   000550                     u1390:
  1755   000550                     
  1756                           ;password.c: 59:               {;password.c: 60:                 if(!mystrcmp(uckey, pas
      +                          s))
  1757   000550  0E83               	movlw	low _uckey
  1758   000552  6E01               	movwf	mystrcmp@s1^0,c
  1759   000554  0E00               	movlw	high _uckey
  1760   000556  6E02               	movwf	(mystrcmp@s1+1)^0,c
  1761   000558  0E7E               	movlw	low _pass
  1762   00055A  6E03               	movwf	mystrcmp@s2^0,c
  1763   00055C  0E00               	movlw	high _pass
  1764   00055E  6E04               	movwf	(mystrcmp@s2+1)^0,c
  1765   000560  EC42  F008         	call	_mystrcmp	;wreg free
  1766   000564  5001               	movf	?_mystrcmp^0,w,c
  1767   000566  1002               	iorwf	(?_mystrcmp+1)^0,w,c
  1768   000568  A4D8               	btfss	status,2,c
  1769   00056A  EFB9  F002         	goto	u1401
  1770   00056E  EFBB  F002         	goto	u1400
  1771   000572                     u1401:
  1772   000572  EFF4  F002         	goto	l2006
  1773   000576                     u1400:
  1774   000576                     
  1775                           ;password.c: 61:                 {;password.c: 62:                     enterflag=1;
  1776   000576  0E00               	movlw	0
  1777   000578  6E44               	movwf	(_enterflag+1)^0,c
  1778   00057A  0E01               	movlw	1
  1779   00057C  6E43               	movwf	_enterflag^0,c
  1780                           
  1781                           ;password.c: 63:                     blinkflag=1;
  1782   00057E  0E00               	movlw	0
  1783   000580  6E46               	movwf	(_blinkflag+1)^0,c
  1784   000582  0E01               	movlw	1
  1785   000584  6E45               	movwf	_blinkflag^0,c
  1786   000586                     
  1787                           ;password.c: 64:                     clcd_print( (unsigned char*) "                ", (0
      +                          x80 + (0)));
  1788   000586  0E3B               	movlw	low STR_12
  1789   000588  6E03               	movwf	clcd_print@data^0,c
  1790   00058A  0E7F               	movlw	high STR_12
  1791   00058C  6E04               	movwf	(clcd_print@data+1)^0,c
  1792   00058E  0E80               	movlw	128
  1793   000590  6E05               	movwf	clcd_print@addr^0,c
  1794   000592  ECBF  F008         	call	_clcd_print	;wreg free
  1795   000596                     
  1796                           ;password.c: 65:                     clcd_print( (unsigned char*) "Code Passed  -->", (0
      +                          xC0 + (0)));
  1797   000596  0E6E               	movlw	low STR_13
  1798   000598  6E03               	movwf	clcd_print@data^0,c
  1799   00059A  0E7F               	movlw	high STR_13
  1800   00059C  6E04               	movwf	(clcd_print@data+1)^0,c
  1801   00059E  0EC0               	movlw	192
  1802   0005A0  6E05               	movwf	clcd_print@addr^0,c
  1803   0005A2  ECBF  F008         	call	_clcd_print	;wreg free
  1804                           
  1805                           ;password.c: 66:                     for(wait=100000; wait--;);
  1806   0005A6  0EA0               	movlw	160
  1807   0005A8  6E3D               	movwf	_wait^0,c
  1808   0005AA  0E86               	movlw	134
  1809   0005AC  6E3E               	movwf	(_wait+1)^0,c
  1810   0005AE  0E01               	movlw	1
  1811   0005B0  6E3F               	movwf	(_wait+2)^0,c
  1812   0005B2  0E00               	movlw	0
  1813   0005B4  6E40               	movwf	(_wait+3)^0,c
  1814   0005B6                     l2002:
  1815   0005B6  063D               	decf	_wait^0,f,c
  1816   0005B8  0E00               	movlw	0
  1817   0005BA  5A3E               	subwfb	(_wait+1)^0,f,c
  1818   0005BC  5A3F               	subwfb	(_wait+2)^0,f,c
  1819   0005BE  5A40               	subwfb	(_wait+3)^0,f,c
  1820   0005C0  283D               	incf	_wait^0,w,c
  1821   0005C2  E10A               	bnz	u1411
  1822   0005C4  283E               	incf	(_wait+1)^0,w,c
  1823   0005C6  E108               	bnz	u1411
  1824   0005C8  283F               	incf	(_wait+2)^0,w,c
  1825   0005CA  E106               	bnz	u1411
  1826   0005CC  2840               	incf	(_wait+3)^0,w,c
  1827   0005CE  A4D8               	btfss	status,2,c
  1828   0005D0  EFEC  F002         	goto	u1411
  1829   0005D4  EFEE  F002         	goto	u1410
  1830   0005D8                     u1411:
  1831   0005D8  EFDB  F002         	goto	l2002
  1832   0005DC                     u1410:
  1833   0005DC                     
  1834                           ;password.c: 67:                     controlflag=4;
  1835   0005DC  0E00               	movlw	0
  1836   0005DE  6E58               	movwf	(_controlflag+1)^0,c
  1837   0005E0  0E04               	movlw	4
  1838   0005E2  6E57               	movwf	_controlflag^0,c
  1839                           
  1840                           ;password.c: 68:                 }
  1841   0005E4  EF6A  F003         	goto	l255
  1842   0005E8                     l2006:
  1843                           
  1844                           ;password.c: 70:                 {;password.c: 71:                     notpressed=10000;
  1845   0005E8  0E10               	movlw	16
  1846   0005EA  0100               	movlb	0	; () banked
  1847   0005EC  6F7A               	movwf	_notpressed& (0+255),b
  1848   0005EE  0E27               	movlw	39
  1849   0005F0  6F7B               	movwf	(_notpressed+1)& (0+255),b
  1850   0005F2  0E00               	movlw	0
  1851   0005F4  6F7C               	movwf	(_notpressed+2)& (0+255),b
  1852   0005F6  0E00               	movlw	0
  1853   0005F8  6F7D               	movwf	(_notpressed+3)& (0+255),b
  1854                           
  1855                           ;password.c: 72:                     enterflag=1;
  1856   0005FA  0E00               	movlw	0
  1857   0005FC  6E44               	movwf	(_enterflag+1)^0,c
  1858   0005FE  0E01               	movlw	1
  1859   000600  6E43               	movwf	_enterflag^0,c
  1860   000602                     
  1861                           ; BSR set to: 0
  1862                           ;password.c: 73:                      clcd_print( (unsigned char*) " Wrong Password ", (
      +                          0x80 + (0)));
  1863   000602  0E4C               	movlw	low STR_14
  1864   000604  6E03               	movwf	clcd_print@data^0,c
  1865   000606  0E7F               	movlw	high STR_14
  1866   000608  6E04               	movwf	(clcd_print@data+1)^0,c
  1867   00060A  0E80               	movlw	128
  1868   00060C  6E05               	movwf	clcd_print@addr^0,c
  1869   00060E  ECBF  F008         	call	_clcd_print	;wreg free
  1870   000612                     
  1871                           ;password.c: 74:                      clcd_print( (unsigned char*) " attempt Remains", (
      +                          0xC0 + (1)));
  1872   000612  0E7F               	movlw	low STR_15
  1873   000614  6E03               	movwf	clcd_print@data^0,c
  1874   000616  0E7F               	movlw	high STR_15
  1875   000618  6E04               	movwf	(clcd_print@data+1)^0,c
  1876   00061A  0EC1               	movlw	193
  1877   00061C  6E05               	movwf	clcd_print@addr^0,c
  1878   00061E  ECBF  F008         	call	_clcd_print	;wreg free
  1879   000622                     
  1880                           ;password.c: 75:                      tryflag--;
  1881   000622  0653               	decf	_tryflag^0,f,c
  1882   000624  A0D8               	btfss	status,0,c
  1883   000626  0654               	decf	(_tryflag+1)^0,f,c
  1884   000628                     
  1885                           ;password.c: 76:                      clcd_putch((unsigned char)tryflag+48, (0xC0 + (0))
      +                          );
  1886   000628  0EC0               	movlw	192
  1887   00062A  6E0F               	movwf	clcd_putch@addr^0,c
  1888   00062C  5053               	movf	_tryflag^0,w,c
  1889   00062E  0F30               	addlw	48
  1890   000630  EC69  F009         	call	_clcd_putch
  1891   000634                     
  1892                           ;password.c: 77:                      for(wait=100000; wait--;);
  1893   000634  0EA0               	movlw	160
  1894   000636  6E3D               	movwf	_wait^0,c
  1895   000638  0E86               	movlw	134
  1896   00063A  6E3E               	movwf	(_wait+1)^0,c
  1897   00063C  0E01               	movlw	1
  1898   00063E  6E3F               	movwf	(_wait+2)^0,c
  1899   000640  0E00               	movlw	0
  1900   000642  6E40               	movwf	(_wait+3)^0,c
  1901   000644                     l2018:
  1902   000644  063D               	decf	_wait^0,f,c
  1903   000646  0E00               	movlw	0
  1904   000648  5A3E               	subwfb	(_wait+1)^0,f,c
  1905   00064A  5A3F               	subwfb	(_wait+2)^0,f,c
  1906   00064C  5A40               	subwfb	(_wait+3)^0,f,c
  1907   00064E  283D               	incf	_wait^0,w,c
  1908   000650  E10A               	bnz	u1421
  1909   000652  283E               	incf	(_wait+1)^0,w,c
  1910   000654  E108               	bnz	u1421
  1911   000656  283F               	incf	(_wait+2)^0,w,c
  1912   000658  E106               	bnz	u1421
  1913   00065A  2840               	incf	(_wait+3)^0,w,c
  1914   00065C  A4D8               	btfss	status,2,c
  1915   00065E  EF33  F003         	goto	u1421
  1916   000662  EF35  F003         	goto	u1420
  1917   000666                     u1421:
  1918   000666  EF22  F003         	goto	l2018
  1919   00066A                     u1420:
  1920   00066A                     
  1921                           ;password.c: 78:                      clcd_write(0x01, 0);
  1922   00066A  0E00               	movlw	0
  1923   00066C  6E01               	movwf	clcd_write@control_bit^0,c
  1924   00066E  0E01               	movlw	1
  1925   000670  ECFC  F008         	call	_clcd_write
  1926   000674                     
  1927                           ;password.c: 79:                      enterflag=0;
  1928   000674  0E00               	movlw	0
  1929   000676  6E44               	movwf	(_enterflag+1)^0,c
  1930   000678  0E00               	movlw	0
  1931   00067A  6E43               	movwf	_enterflag^0,c
  1932   00067C  EF6A  F003         	goto	l255
  1933   000680                     l2024:
  1934                           
  1935                           ;password.c: 84:        {;password.c: 85:               enterflag=1;
  1936   000680  0E00               	movlw	0
  1937   000682  6E44               	movwf	(_enterflag+1)^0,c
  1938   000684  0E01               	movlw	1
  1939   000686  6E43               	movwf	_enterflag^0,c
  1940   000688                     
  1941                           ;password.c: 86:               clcd_print( (unsigned char*) "Try Again left" , (0x80 + (
      +                          0)));
  1942   000688  0EC0               	movlw	low STR_16
  1943   00068A  6E03               	movwf	clcd_print@data^0,c
  1944   00068C  0E7F               	movlw	high STR_16
  1945   00068E  6E04               	movwf	(clcd_print@data+1)^0,c
  1946   000690  0E80               	movlw	128
  1947   000692  6E05               	movwf	clcd_print@addr^0,c
  1948   000694  ECBF  F008         	call	_clcd_print	;wreg free
  1949   000698                     
  1950                           ;password.c: 87:               clcd_print( (unsigned char*) "               ", (0xC0 + (
      +                          0)));
  1951   000698  0E3C               	movlw	low (STR_12+1)
  1952   00069A  6E03               	movwf	clcd_print@data^0,c
  1953   00069C  0E7F               	movlw	high (STR_12+1)
  1954   00069E  6E04               	movwf	(clcd_print@data+1)^0,c
  1955   0006A0  0EC0               	movlw	192
  1956   0006A2  6E05               	movwf	clcd_print@addr^0,c
  1957   0006A4  ECBF  F008         	call	_clcd_print	;wreg free
  1958   0006A8                     
  1959                           ;password.c: 88:               timeleft();
  1960   0006A8  ECDE  F005         	call	_timeleft	;wreg free
  1961   0006AC                     
  1962                           ;password.c: 89:               blink=0, tryflag=4, enterflag=0, compareflag=0,blinkflag=
      +                          0;
  1963   0006AC  0E00               	movlw	0
  1964   0006AE  6E48               	movwf	(_blink+1)^0,c
  1965   0006B0  0E00               	movlw	0
  1966   0006B2  6E47               	movwf	_blink^0,c
  1967   0006B4  0E00               	movlw	0
  1968   0006B6  6E54               	movwf	(_tryflag+1)^0,c
  1969   0006B8  0E04               	movlw	4
  1970   0006BA  6E53               	movwf	_tryflag^0,c
  1971   0006BC  0E00               	movlw	0
  1972   0006BE  6E44               	movwf	(_enterflag+1)^0,c
  1973   0006C0  0E00               	movlw	0
  1974   0006C2  6E43               	movwf	_enterflag^0,c
  1975   0006C4  0E00               	movlw	0
  1976   0006C6  6E42               	movwf	(_compareflag+1)^0,c
  1977   0006C8  0E00               	movlw	0
  1978   0006CA  6E41               	movwf	_compareflag^0,c
  1979   0006CC  0E00               	movlw	0
  1980   0006CE  6E46               	movwf	(_blinkflag+1)^0,c
  1981   0006D0  0E00               	movlw	0
  1982   0006D2  6E45               	movwf	_blinkflag^0,c
  1983   0006D4                     l255:
  1984   0006D4  0012               	return		;funcret
  1985   0006D6                     __end_of_logscreen:
  1986                           	callstack 0
  1987                           
  1988 ;; *************** function _timeleft *****************
  1989 ;; Defined at:
  1990 ;;		line 92 in file "password.c"
  1991 ;; Parameters:    Size  Location     Type
  1992 ;;		None
  1993 ;; Auto vars:     Size  Location     Type
  1994 ;;		None
  1995 ;; Return value:  Size  Location     Type
  1996 ;;                  1    wreg      void 
  1997 ;; Registers used:
  1998 ;;		wreg, status,2, status,0, tblptrl, tblptrh, tblptru, cstack
  1999 ;; Tracked objects:
  2000 ;;		On entry : 0/0
  2001 ;;		On exit  : 0/0
  2002 ;;		Unchanged: 0/0
  2003 ;; Data sizes:     COMRAM   BANK0   BANK1   BANK2   BANK3   BANK4   BANK5
  2004 ;;      Params:         0       0       0       0       0       0       0
  2005 ;;      Locals:         0       0       0       0       0       0       0
  2006 ;;      Temps:          0       0       0       0       0       0       0
  2007 ;;      Totals:         0       0       0       0       0       0       0
  2008 ;;Total ram usage:        0 bytes
  2009 ;; Hardware stack levels used: 1
  2010 ;; Hardware stack levels required when called: 3
  2011 ;; This function calls:
  2012 ;;		___awdiv
  2013 ;;		___awmod
  2014 ;;		_clcd_print
  2015 ;;		_clcd_putch
  2016 ;;		_clcd_write
  2017 ;; This function is called by:
  2018 ;;		_logscreen
  2019 ;; This function uses a non-reentrant model
  2020 ;;
  2021                           
  2022                           	psect	text6
  2023   000BBC                     __ptext6:
  2024                           	callstack 0
  2025   000BBC                     _timeleft:
  2026                           	callstack 26
  2027   000BBC                     
  2028                           ;password.c: 94:     clcd_write(0x01, 0);
  2029   000BBC  0E00               	movlw	0
  2030   000BBE  6E01               	movwf	clcd_write@control_bit^0,c
  2031   000BC0  0E01               	movlw	1
  2032   000BC2  ECFC  F008         	call	_clcd_write
  2033   000BC6                     
  2034                           ;password.c: 95:     min=0;
  2035   000BC6  0E00               	movlw	0
  2036   000BC8  6E4A               	movwf	(_min+1)^0,c
  2037   000BCA  0E00               	movlw	0
  2038   000BCC  6E49               	movwf	_min^0,c
  2039   000BCE                     
  2040                           ;password.c: 96:     TMR0ON=1;
  2041   000BCE  8ED5               	bsf	4053,7,c	;volatile
  2042                           
  2043                           ;password.c: 97:     while(sec!=0)
  2044   000BD0  EF2C  F006         	goto	l1924
  2045   000BD4                     l1918:
  2046                           
  2047                           ;password.c: 98:     {;password.c: 99:         clcd_print( (unsigned char*) "Try Again l
      +                          eft" , (0x80 + (0)));
  2048   000BD4  0EC0               	movlw	low STR_16
  2049   000BD6  6E03               	movwf	clcd_print@data^0,c
  2050   000BD8  0E7F               	movlw	high STR_16
  2051   000BDA  6E04               	movwf	(clcd_print@data+1)^0,c
  2052   000BDC  0E80               	movlw	128
  2053   000BDE  6E05               	movwf	clcd_print@addr^0,c
  2054   000BE0  ECBF  F008         	call	_clcd_print	;wreg free
  2055                           
  2056                           ;password.c: 100:         clcd_print( (unsigned char*) "Wait for", (0xC0 + (0)));
  2057   000BE4  0ED9               	movlw	low STR_19
  2058   000BE6  6E03               	movwf	clcd_print@data^0,c
  2059   000BE8  0E7F               	movlw	high STR_19
  2060   000BEA  6E04               	movwf	(clcd_print@data+1)^0,c
  2061   000BEC  0EC0               	movlw	192
  2062   000BEE  6E05               	movwf	clcd_print@addr^0,c
  2063   000BF0  ECBF  F008         	call	_clcd_print	;wreg free
  2064                           
  2065                           ;password.c: 101:         clcd_print( (unsigned char*) " s  ", (0xC0 + (11)));
  2066   000BF4  0EE2               	movlw	low STR_20
  2067   000BF6  6E03               	movwf	clcd_print@data^0,c
  2068   000BF8  0E7F               	movlw	high STR_20
  2069   000BFA  6E04               	movwf	(clcd_print@data+1)^0,c
  2070   000BFC  0ECB               	movlw	203
  2071   000BFE  6E05               	movwf	clcd_print@addr^0,c
  2072   000C00  ECBF  F008         	call	_clcd_print	;wreg free
  2073   000C04                     
  2074                           ;password.c: 102:         clcd_putch(sec%10+48, (0xC0 + (10)));
  2075   000C04  0ECA               	movlw	202
  2076   000C06  6E0F               	movwf	clcd_putch@addr^0,c
  2077   000C08  C055  F009         	movff	_sec,___awmod@dividend
  2078   000C0C  C056  F00A         	movff	_sec+1,___awmod@dividend+1
  2079   000C10  0E00               	movlw	0
  2080   000C12  6E0C               	movwf	(___awmod@divisor+1)^0,c
  2081   000C14  0E0A               	movlw	10
  2082   000C16  6E0B               	movwf	___awmod@divisor^0,c
  2083   000C18  ECFA  F006         	call	___awmod	;wreg free
  2084   000C1C  5009               	movf	?___awmod^0,w,c
  2085   000C1E  0F30               	addlw	48
  2086   000C20  EC69  F009         	call	_clcd_putch
  2087   000C24                     
  2088                           ;password.c: 103:         clcd_putch(((sec/10)%10)+48, (0xC0 + (9)));
  2089   000C24  0EC9               	movlw	201
  2090   000C26  6E0F               	movwf	clcd_putch@addr^0,c
  2091   000C28  0E00               	movlw	0
  2092   000C2A  6E04               	movwf	(___awdiv@divisor+1)^0,c
  2093   000C2C  0E0A               	movlw	10
  2094   000C2E  6E03               	movwf	___awdiv@divisor^0,c
  2095   000C30  C055  F001         	movff	_sec,___awdiv@dividend
  2096   000C34  C056  F002         	movff	_sec+1,___awdiv@dividend+1
  2097   000C38  EC40  F006         	call	___awdiv	;wreg free
  2098   000C3C  C001  F009         	movff	?___awdiv,___awmod@dividend
  2099   000C40  C002  F00A         	movff	?___awdiv+1,___awmod@dividend+1
  2100   000C44  0E00               	movlw	0
  2101   000C46  6E0C               	movwf	(___awmod@divisor+1)^0,c
  2102   000C48  0E0A               	movlw	10
  2103   000C4A  6E0B               	movwf	___awmod@divisor^0,c
  2104   000C4C  ECFA  F006         	call	___awmod	;wreg free
  2105   000C50  5009               	movf	?___awmod^0,w,c
  2106   000C52  0F30               	addlw	48
  2107   000C54  EC69  F009         	call	_clcd_putch
  2108   000C58                     l1924:
  2109                           
  2110                           ;password.c: 97:     while(sec!=0)
  2111   000C58  5055               	movf	_sec^0,w,c
  2112   000C5A  1056               	iorwf	(_sec+1)^0,w,c
  2113   000C5C  A4D8               	btfss	status,2,c
  2114   000C5E  EF33  F006         	goto	u1271
  2115   000C62  EF35  F006         	goto	u1270
  2116   000C66                     u1271:
  2117   000C66  EFEA  F005         	goto	l1918
  2118   000C6A                     u1270:
  2119   000C6A                     
  2120                           ;password.c: 105:     TMR0ON=0;
  2121   000C6A  9ED5               	bcf	4053,7,c	;volatile
  2122   000C6C                     
  2123                           ;password.c: 106:     sec=10;
  2124   000C6C  0E00               	movlw	0
  2125   000C6E  6E56               	movwf	(_sec+1)^0,c
  2126   000C70  0E0A               	movlw	10
  2127   000C72  6E55               	movwf	_sec^0,c
  2128   000C74                     
  2129                           ;password.c: 107:     clcd_write(0x01, 0);
  2130   000C74  0E00               	movlw	0
  2131   000C76  6E01               	movwf	clcd_write@control_bit^0,c
  2132   000C78  0E01               	movlw	1
  2133   000C7A  ECFC  F008         	call	_clcd_write
  2134   000C7E  0012               	return		;funcret
  2135   000C80                     __end_of_timeleft:
  2136                           	callstack 0
  2137                           
  2138 ;; *************** function ___awdiv *****************
  2139 ;; Defined at:
  2140 ;;		line 7 in file "C:\Program Files\Microchip\xc8\v2.41\pic\sources\c99\common\awdiv.c"
  2141 ;; Parameters:    Size  Location     Type
  2142 ;;  dividend        2    0[COMRAM] int 
  2143 ;;  divisor         2    2[COMRAM] int 
  2144 ;; Auto vars:     Size  Location     Type
  2145 ;;  quotient        2    6[COMRAM] int 
  2146 ;;  sign            1    5[COMRAM] unsigned char 
  2147 ;;  counter         1    4[COMRAM] unsigned char 
  2148 ;; Return value:  Size  Location     Type
  2149 ;;                  2    0[COMRAM] int 
  2150 ;; Registers used:
  2151 ;;		wreg, status,2, status,0
  2152 ;; Tracked objects:
  2153 ;;		On entry : 0/0
  2154 ;;		On exit  : 0/0
  2155 ;;		Unchanged: 0/0
  2156 ;; Data sizes:     COMRAM   BANK0   BANK1   BANK2   BANK3   BANK4   BANK5
  2157 ;;      Params:         4       0       0       0       0       0       0
  2158 ;;      Locals:         4       0       0       0       0       0       0
  2159 ;;      Temps:          0       0       0       0       0       0       0
  2160 ;;      Totals:         8       0       0       0       0       0       0
  2161 ;;Total ram usage:        8 bytes
  2162 ;; Hardware stack levels used: 1
  2163 ;; Hardware stack levels required when called: 1
  2164 ;; This function calls:
  2165 ;;		Nothing
  2166 ;; This function is called by:
  2167 ;;		_timeleft
  2168 ;; This function uses a non-reentrant model
  2169 ;;
  2170                           
  2171                           	psect	text7
  2172   000C80                     __ptext7:
  2173                           	callstack 0
  2174   000C80                     ___awdiv:
  2175                           	callstack 27
  2176   000C80  0E00               	movlw	0
  2177   000C82  6E06               	movwf	___awdiv@sign^0,c
  2178   000C84  BE04               	btfsc	(___awdiv@divisor+1)^0,7,c
  2179   000C86  EF49  F006         	goto	u1030
  2180   000C8A  EF47  F006         	goto	u1031
  2181   000C8E                     u1031:
  2182   000C8E  EF4F  F006         	goto	l1742
  2183   000C92                     u1030:
  2184   000C92  6C03               	negf	___awdiv@divisor^0,c
  2185   000C94  1E04               	comf	(___awdiv@divisor+1)^0,f,c
  2186   000C96  B0D8               	btfsc	status,0,c
  2187   000C98  2A04               	incf	(___awdiv@divisor+1)^0,f,c
  2188   000C9A  0E01               	movlw	1
  2189   000C9C  6E06               	movwf	___awdiv@sign^0,c
  2190   000C9E                     l1742:
  2191   000C9E  BE02               	btfsc	(___awdiv@dividend+1)^0,7,c
  2192   000CA0  EF56  F006         	goto	u1040
  2193   000CA4  EF54  F006         	goto	u1041
  2194   000CA8                     u1041:
  2195   000CA8  EF5C  F006         	goto	l1748
  2196   000CAC                     u1040:
  2197   000CAC  6C01               	negf	___awdiv@dividend^0,c
  2198   000CAE  1E02               	comf	(___awdiv@dividend+1)^0,f,c
  2199   000CB0  B0D8               	btfsc	status,0,c
  2200   000CB2  2A02               	incf	(___awdiv@dividend+1)^0,f,c
  2201   000CB4  0E01               	movlw	1
  2202   000CB6  1A06               	xorwf	___awdiv@sign^0,f,c
  2203   000CB8                     l1748:
  2204   000CB8  0E00               	movlw	0
  2205   000CBA  6E08               	movwf	(___awdiv@quotient+1)^0,c
  2206   000CBC  0E00               	movlw	0
  2207   000CBE  6E07               	movwf	___awdiv@quotient^0,c
  2208   000CC0  5003               	movf	___awdiv@divisor^0,w,c
  2209   000CC2  1004               	iorwf	(___awdiv@divisor+1)^0,w,c
  2210   000CC4  B4D8               	btfsc	status,2,c
  2211   000CC6  EF67  F006         	goto	u1051
  2212   000CCA  EF69  F006         	goto	u1050
  2213   000CCE                     u1051:
  2214   000CCE  EF91  F006         	goto	l1770
  2215   000CD2                     u1050:
  2216   000CD2  0E01               	movlw	1
  2217   000CD4  6E05               	movwf	___awdiv@counter^0,c
  2218   000CD6  EF71  F006         	goto	l1756
  2219   000CDA                     l1754:
  2220   000CDA  90D8               	bcf	status,0,c
  2221   000CDC  3603               	rlcf	___awdiv@divisor^0,f,c
  2222   000CDE  3604               	rlcf	(___awdiv@divisor+1)^0,f,c
  2223   000CE0  2A05               	incf	___awdiv@counter^0,f,c
  2224   000CE2                     l1756:
  2225   000CE2  AE04               	btfss	(___awdiv@divisor+1)^0,7,c
  2226   000CE4  EF76  F006         	goto	u1061
  2227   000CE8  EF78  F006         	goto	u1060
  2228   000CEC                     u1061:
  2229   000CEC  EF6D  F006         	goto	l1754
  2230   000CF0                     u1060:
  2231   000CF0                     l1758:
  2232   000CF0  90D8               	bcf	status,0,c
  2233   000CF2  3607               	rlcf	___awdiv@quotient^0,f,c
  2234   000CF4  3608               	rlcf	(___awdiv@quotient+1)^0,f,c
  2235   000CF6  5003               	movf	___awdiv@divisor^0,w,c
  2236   000CF8  5C01               	subwf	___awdiv@dividend^0,w,c
  2237   000CFA  5004               	movf	(___awdiv@divisor+1)^0,w,c
  2238   000CFC  5802               	subwfb	(___awdiv@dividend+1)^0,w,c
  2239   000CFE  A0D8               	btfss	status,0,c
  2240   000D00  EF84  F006         	goto	u1071
  2241   000D04  EF86  F006         	goto	u1070
  2242   000D08                     u1071:
  2243   000D08  EF8B  F006         	goto	l1766
  2244   000D0C                     u1070:
  2245   000D0C  5003               	movf	___awdiv@divisor^0,w,c
  2246   000D0E  5E01               	subwf	___awdiv@dividend^0,f,c
  2247   000D10  5004               	movf	(___awdiv@divisor+1)^0,w,c
  2248   000D12  5A02               	subwfb	(___awdiv@dividend+1)^0,f,c
  2249   000D14  8007               	bsf	___awdiv@quotient^0,0,c
  2250   000D16                     l1766:
  2251   000D16  90D8               	bcf	status,0,c
  2252   000D18  3204               	rrcf	(___awdiv@divisor+1)^0,f,c
  2253   000D1A  3203               	rrcf	___awdiv@divisor^0,f,c
  2254   000D1C  2E05               	decfsz	___awdiv@counter^0,f,c
  2255   000D1E  EF78  F006         	goto	l1758
  2256   000D22                     l1770:
  2257   000D22  5006               	movf	___awdiv@sign^0,w,c
  2258   000D24  B4D8               	btfsc	status,2,c
  2259   000D26  EF97  F006         	goto	u1081
  2260   000D2A  EF99  F006         	goto	u1080
  2261   000D2E                     u1081:
  2262   000D2E  EF9D  F006         	goto	l1774
  2263   000D32                     u1080:
  2264   000D32  6C07               	negf	___awdiv@quotient^0,c
  2265   000D34  1E08               	comf	(___awdiv@quotient+1)^0,f,c
  2266   000D36  B0D8               	btfsc	status,0,c
  2267   000D38  2A08               	incf	(___awdiv@quotient+1)^0,f,c
  2268   000D3A                     l1774:
  2269   000D3A  C007  F001         	movff	___awdiv@quotient,?___awdiv
  2270   000D3E  C008  F002         	movff	___awdiv@quotient+1,?___awdiv+1
  2271   000D42  0012               	return		;funcret
  2272   000D44                     __end_of___awdiv:
  2273                           	callstack 0
  2274                           
  2275 ;; *************** function _mystrcmp *****************
  2276 ;; Defined at:
  2277 ;;		line 109 in file "password.c"
  2278 ;; Parameters:    Size  Location     Type
  2279 ;;  s1              2    0[COMRAM] PTR unsigned char 
  2280 ;;		 -> uckey(5), 
  2281 ;;  s2              2    2[COMRAM] PTR unsigned char 
  2282 ;;		 -> pass(5), 
  2283 ;; Auto vars:     Size  Location     Type
  2284 ;;  i               2    6[COMRAM] int 
  2285 ;; Return value:  Size  Location     Type
  2286 ;;                  2    0[COMRAM] int 
  2287 ;; Registers used:
  2288 ;;		wreg, fsr1l, fsr1h, fsr2l, fsr2h, status,2, status,0
  2289 ;; Tracked objects:
  2290 ;;		On entry : 0/0
  2291 ;;		On exit  : 0/0
  2292 ;;		Unchanged: 0/0
  2293 ;; Data sizes:     COMRAM   BANK0   BANK1   BANK2   BANK3   BANK4   BANK5
  2294 ;;      Params:         4       0       0       0       0       0       0
  2295 ;;      Locals:         2       0       0       0       0       0       0
  2296 ;;      Temps:          2       0       0       0       0       0       0
  2297 ;;      Totals:         8       0       0       0       0       0       0
  2298 ;;Total ram usage:        8 bytes
  2299 ;; Hardware stack levels used: 1
  2300 ;; Hardware stack levels required when called: 1
  2301 ;; This function calls:
  2302 ;;		Nothing
  2303 ;; This function is called by:
  2304 ;;		_logscreen
  2305 ;; This function uses a non-reentrant model
  2306 ;;
  2307                           
  2308                           	psect	text8
  2309   001084                     __ptext8:
  2310                           	callstack 0
  2311   001084                     _mystrcmp:
  2312                           	callstack 28
  2313   001084                     
  2314                           ;password.c: 109: int mystrcmp(char*s1, char *s2);password.c: 110: {;password.c: 111:   
      +                            int i=0;
  2315   001084  0E00               	movlw	0
  2316   001086  6E08               	movwf	(mystrcmp@i+1)^0,c
  2317   001088  0E00               	movlw	0
  2318   00108A  6E07               	movwf	mystrcmp@i^0,c
  2319                           
  2320                           ;password.c: 112:     while(s1[i]!= '\0')
  2321   00108C  EF61  F008         	goto	l1910
  2322   001090                     l1904:
  2323                           
  2324                           ;password.c: 113:     {;password.c: 114:         if(s1[i]!=s2[i])
  2325   001090  5007               	movf	mystrcmp@i^0,w,c
  2326   001092  2403               	addwf	mystrcmp@s2^0,w,c
  2327   001094  6ED9               	movwf	fsr2l,c
  2328   001096  5008               	movf	(mystrcmp@i+1)^0,w,c
  2329   001098  2004               	addwfc	(mystrcmp@s2+1)^0,w,c
  2330   00109A  6EDA               	movwf	fsr2h,c
  2331   00109C  5007               	movf	mystrcmp@i^0,w,c
  2332   00109E  2401               	addwf	mystrcmp@s1^0,w,c
  2333   0010A0  6EE1               	movwf	fsr1l,c
  2334   0010A2  5008               	movf	(mystrcmp@i+1)^0,w,c
  2335   0010A4  2002               	addwfc	(mystrcmp@s1+1)^0,w,c
  2336   0010A6  6EE2               	movwf	fsr1h,c
  2337   0010A8  50DE               	movf	postinc2,w,c
  2338   0010AA  18E6               	xorwf	postinc1,w,c
  2339   0010AC  B4D8               	btfsc	status,2,c
  2340   0010AE  EF5B  F008         	goto	u1251
  2341   0010B2  EF5D  F008         	goto	u1250
  2342   0010B6                     u1251:
  2343   0010B6  EF5F  F008         	goto	l1908
  2344   0010BA                     u1250:
  2345   0010BA  EF6F  F008         	goto	l287
  2346   0010BE                     l1908:
  2347                           
  2348                           ;password.c: 116:         i++;
  2349   0010BE  4A07               	infsnz	mystrcmp@i^0,f,c
  2350   0010C0  2A08               	incf	(mystrcmp@i+1)^0,f,c
  2351   0010C2                     l1910:
  2352                           
  2353                           ;password.c: 112:     while(s1[i]!= '\0')
  2354   0010C2  5007               	movf	mystrcmp@i^0,w,c
  2355   0010C4  2401               	addwf	mystrcmp@s1^0,w,c
  2356   0010C6  6ED9               	movwf	fsr2l,c
  2357   0010C8  5008               	movf	(mystrcmp@i+1)^0,w,c
  2358   0010CA  2002               	addwfc	(mystrcmp@s1+1)^0,w,c
  2359   0010CC  6EDA               	movwf	fsr2h,c
  2360   0010CE  50DF               	movf	indf2,w,c
  2361   0010D0  A4D8               	btfss	status,2,c
  2362   0010D2  EF6D  F008         	goto	u1261
  2363   0010D6  EF6F  F008         	goto	u1260
  2364   0010DA                     u1261:
  2365   0010DA  EF48  F008         	goto	l1904
  2366   0010DE                     u1260:
  2367   0010DE                     l287:
  2368   0010DE  0012               	return		;funcret
  2369   0010E0                     __end_of_mystrcmp:
  2370                           	callstack 0
  2371                           
  2372 ;; *************** function _init_config *****************
  2373 ;; Defined at:
  2374 ;;		line 9 in file "main.c"
  2375 ;; Parameters:    Size  Location     Type
  2376 ;;		None
  2377 ;; Auto vars:     Size  Location     Type
  2378 ;;		None
  2379 ;; Return value:  Size  Location     Type
  2380 ;;                  1    wreg      void 
  2381 ;; Registers used:
  2382 ;;		wreg, status,2, status,0, cstack
  2383 ;; Tracked objects:
  2384 ;;		On entry : 0/0
  2385 ;;		On exit  : 0/0
  2386 ;;		Unchanged: 0/0
  2387 ;; Data sizes:     COMRAM   BANK0   BANK1   BANK2   BANK3   BANK4   BANK5
  2388 ;;      Params:         0       0       0       0       0       0       0
  2389 ;;      Locals:         0       0       0       0       0       0       0
  2390 ;;      Temps:          0       0       0       0       0       0       0
  2391 ;;      Totals:         0       0       0       0       0       0       0
  2392 ;;Total ram usage:        0 bytes
  2393 ;; Hardware stack levels used: 1
  2394 ;; Hardware stack levels required when called: 3
  2395 ;; This function calls:
  2396 ;;		_init_adc
  2397 ;;		_init_clcd
  2398 ;;		_init_matrixkeypad
  2399 ;;		_init_timer0
  2400 ;; This function is called by:
  2401 ;;		_main
  2402 ;; This function uses a non-reentrant model
  2403 ;;
  2404                           
  2405                           	psect	text9
  2406   0012EA                     __ptext9:
  2407                           	callstack 0
  2408   0012EA                     _init_config:
  2409                           	callstack 27
  2410   0012EA                     
  2411                           ;main.c: 10:     init_matrixkeypad();
  2412   0012EA  EC87  F009         	call	_init_matrixkeypad	;wreg free
  2413                           
  2414                           ;main.c: 11:     init_clcd();
  2415   0012EE  ECA2  F006         	call	_init_clcd	;wreg free
  2416   0012F2                     
  2417                           ;main.c: 13:     init_adc();
  2418   0012F2  EC4D  F009         	call	_init_adc	;wreg free
  2419   0012F6                     
  2420                           ;main.c: 14:     init_timer0();
  2421   0012F6  EC5C  F009         	call	_init_timer0	;wreg free
  2422   0012FA  0012               	return		;funcret
  2423   0012FC                     __end_of_init_config:
  2424                           	callstack 0
  2425                           
  2426 ;; *************** function _init_timer0 *****************
  2427 ;; Defined at:
  2428 ;;		line 3 in file "timer0.c"
  2429 ;; Parameters:    Size  Location     Type
  2430 ;;		None
  2431 ;; Auto vars:     Size  Location     Type
  2432 ;;		None
  2433 ;; Return value:  Size  Location     Type
  2434 ;;                  1    wreg      void 
  2435 ;; Registers used:
  2436 ;;		wreg, status,2
  2437 ;; Tracked objects:
  2438 ;;		On entry : 0/0
  2439 ;;		On exit  : 0/0
  2440 ;;		Unchanged: 0/0
  2441 ;; Data sizes:     COMRAM   BANK0   BANK1   BANK2   BANK3   BANK4   BANK5
  2442 ;;      Params:         0       0       0       0       0       0       0
  2443 ;;      Locals:         0       0       0       0       0       0       0
  2444 ;;      Temps:          0       0       0       0       0       0       0
  2445 ;;      Totals:         0       0       0       0       0       0       0
  2446 ;;Total ram usage:        0 bytes
  2447 ;; Hardware stack levels used: 1
  2448 ;; Hardware stack levels required when called: 1
  2449 ;; This function calls:
  2450 ;;		Nothing
  2451 ;; This function is called by:
  2452 ;;		_init_config
  2453 ;; This function uses a non-reentrant model
  2454 ;;
  2455                           
  2456                           	psect	text10
  2457   0012B8                     __ptext10:
  2458                           	callstack 0
  2459   0012B8                     _init_timer0:
  2460                           	callstack 28
  2461   0012B8                     
  2462                           ;timer0.c: 5:     GIE=1;
  2463   0012B8  8EF2               	bsf	4082,7,c	;volatile
  2464                           
  2465                           ;timer0.c: 6:     PEIE=1;
  2466   0012BA  8CF2               	bsf	4082,6,c	;volatile
  2467                           
  2468                           ;timer0.c: 7:     TMR0IE=1;
  2469   0012BC  8AF2               	bsf	4082,5,c	;volatile
  2470                           
  2471                           ;timer0.c: 8:     TMR0ON=0;
  2472   0012BE  9ED5               	bcf	4053,7,c	;volatile
  2473                           
  2474                           ;timer0.c: 9:     TMR0IF=0;
  2475   0012C0  94F2               	bcf	4082,2,c	;volatile
  2476                           
  2477                           ;timer0.c: 11:     T08BIT=1;
  2478   0012C2  8CD5               	bsf	4053,6,c	;volatile
  2479                           
  2480                           ;timer0.c: 12:     T0CS = 0;
  2481   0012C4  9AD5               	bcf	4053,5,c	;volatile
  2482                           
  2483                           ;timer0.c: 13:     PSA = 1;
  2484   0012C6  86D5               	bsf	4053,3,c	;volatile
  2485   0012C8                     
  2486                           ;timer0.c: 14:     TMR0 = 6;
  2487   0012C8  0E00               	movlw	0
  2488   0012CA  6ED7               	movwf	215,c	;volatile
  2489   0012CC  0E06               	movlw	6
  2490   0012CE  6ED6               	movwf	214,c	;volatile
  2491   0012D0  0012               	return		;funcret
  2492   0012D2                     __end_of_init_timer0:
  2493                           	callstack 0
  2494                           
  2495 ;; *************** function _init_matrixkeypad *****************
  2496 ;; Defined at:
  2497 ;;		line 3 in file "matrixkeyboard.c"
  2498 ;; Parameters:    Size  Location     Type
  2499 ;;		None
  2500 ;; Auto vars:     Size  Location     Type
  2501 ;;		None
  2502 ;; Return value:  Size  Location     Type
  2503 ;;                  1    wreg      void 
  2504 ;; Registers used:
  2505 ;;		wreg, status,2, status,0
  2506 ;; Tracked objects:
  2507 ;;		On entry : 0/0
  2508 ;;		On exit  : 0/0
  2509 ;;		Unchanged: 0/0
  2510 ;; Data sizes:     COMRAM   BANK0   BANK1   BANK2   BANK3   BANK4   BANK5
  2511 ;;      Params:         0       0       0       0       0       0       0
  2512 ;;      Locals:         0       0       0       0       0       0       0
  2513 ;;      Temps:          0       0       0       0       0       0       0
  2514 ;;      Totals:         0       0       0       0       0       0       0
  2515 ;;Total ram usage:        0 bytes
  2516 ;; Hardware stack levels used: 1
  2517 ;; Hardware stack levels required when called: 1
  2518 ;; This function calls:
  2519 ;;		Nothing
  2520 ;; This function is called by:
  2521 ;;		_init_config
  2522 ;; This function uses a non-reentrant model
  2523 ;;
  2524                           
  2525                           	psect	text11
  2526   00130E                     __ptext11:
  2527                           	callstack 0
  2528   00130E                     _init_matrixkeypad:
  2529                           	callstack 28
  2530   00130E                     
  2531                           ;matrixkeyboard.c: 5:     PORTB =0x00;
  2532   00130E  0E00               	movlw	0
  2533   001310  6E81               	movwf	129,c	;volatile
  2534   001312                     
  2535                           ;matrixkeyboard.c: 6:     TRISB = TRISB & 0x1E;
  2536   001312  5093               	movf	147,w,c	;volatile
  2537   001314  0B1E               	andlw	30
  2538   001316  6E93               	movwf	147,c	;volatile
  2539   001318                     
  2540                           ;matrixkeyboard.c: 7:     RBPU=0;
  2541   001318  9EF1               	bcf	4081,7,c	;volatile
  2542   00131A  0012               	return		;funcret
  2543   00131C                     __end_of_init_matrixkeypad:
  2544                           	callstack 0
  2545                           
  2546 ;; *************** function _init_clcd *****************
  2547 ;; Defined at:
  2548 ;;		line 26 in file "clcd.c"
  2549 ;; Parameters:    Size  Location     Type
  2550 ;;		None
  2551 ;; Auto vars:     Size  Location     Type
  2552 ;;		None
  2553 ;; Return value:  Size  Location     Type
  2554 ;;                  1    wreg      void 
  2555 ;; Registers used:
  2556 ;;		wreg, status,2, status,0, cstack
  2557 ;; Tracked objects:
  2558 ;;		On entry : 0/0
  2559 ;;		On exit  : 0/0
  2560 ;;		Unchanged: 0/0
  2561 ;; Data sizes:     COMRAM   BANK0   BANK1   BANK2   BANK3   BANK4   BANK5
  2562 ;;      Params:         0       0       0       0       0       0       0
  2563 ;;      Locals:         0       0       0       0       0       0       0
  2564 ;;      Temps:          2       0       0       0       0       0       0
  2565 ;;      Totals:         2       0       0       0       0       0       0
  2566 ;;Total ram usage:        2 bytes
  2567 ;; Hardware stack levels used: 1
  2568 ;; Hardware stack levels required when called: 2
  2569 ;; This function calls:
  2570 ;;		_clcd_write
  2571 ;; This function is called by:
  2572 ;;		_init_config
  2573 ;; This function uses a non-reentrant model
  2574 ;;
  2575                           
  2576                           	psect	text12
  2577   000D44                     __ptext12:
  2578                           	callstack 0
  2579   000D44                     _init_clcd:
  2580                           	callstack 27
  2581   000D44                     
  2582                           ;clcd.c: 29:  TRISD = 0x00;
  2583   000D44  0E00               	movlw	0
  2584   000D46  6E95               	movwf	149,c	;volatile
  2585   000D48                     
  2586                           ;clcd.c: 31:  TRISC = TRISC & 0xF8;
  2587   000D48  5094               	movf	148,w,c	;volatile
  2588   000D4A  0BF8               	andlw	248
  2589   000D4C  6E94               	movwf	148,c	;volatile
  2590   000D4E                     
  2591                           ;clcd.c: 33:  PORTCbits.RC0 = 0;
  2592   000D4E  9082               	bcf	130,0,c	;volatile
  2593   000D50                     
  2594                           ;clcd.c: 37:     _delay((unsigned long)((40)*(20000000/4000.0)));
  2595   000D50  0E02               	movlw	2
  2596   000D52  6E04               	movwf	(??_init_clcd+1)^0,c
  2597   000D54  0E04               	movlw	4
  2598   000D56  6E03               	movwf	??_init_clcd^0,c
  2599   000D58  0EBA               	movlw	186
  2600   000D5A                     u1887:
  2601   000D5A  2EE8               	decfsz	wreg,f,c
  2602   000D5C  D7FE               	bra	u1887
  2603   000D5E  2E03               	decfsz	??_init_clcd^0,f,c
  2604   000D60  D7FC               	bra	u1887
  2605   000D62  2E04               	decfsz	(??_init_clcd+1)^0,f,c
  2606   000D64  D7FA               	bra	u1887
  2607   000D66  D000               	nop2	
  2608   000D68                     
  2609                           ;clcd.c: 40:     clcd_write(0x33, 0 );
  2610   000D68  0E00               	movlw	0
  2611   000D6A  6E01               	movwf	clcd_write@control_bit^0,c
  2612   000D6C  0E33               	movlw	51
  2613   000D6E  ECFC  F008         	call	_clcd_write
  2614   000D72                     
  2615                           ;clcd.c: 41:     _delay((unsigned long)((4100)*(20000000/4000000.0)));
  2616   000D72  0E1B               	movlw	27
  2617   000D74  6E03               	movwf	??_init_clcd^0,c
  2618   000D76  0E9E               	movlw	158
  2619   000D78                     u1897:
  2620   000D78  2EE8               	decfsz	wreg,f,c
  2621   000D7A  D7FE               	bra	u1897
  2622   000D7C  2E03               	decfsz	??_init_clcd^0,f,c
  2623   000D7E  D7FC               	bra	u1897
  2624   000D80  D000               	nop2	
  2625   000D82                     
  2626                           ;clcd.c: 42:     clcd_write(0x33, 0 );
  2627   000D82  0E00               	movlw	0
  2628   000D84  6E01               	movwf	clcd_write@control_bit^0,c
  2629   000D86  0E33               	movlw	51
  2630   000D88  ECFC  F008         	call	_clcd_write
  2631   000D8C                     
  2632                           ;clcd.c: 43:     _delay((unsigned long)((100)*(20000000/4000000.0)));
  2633   000D8C  0EA6               	movlw	166
  2634   000D8E                     u1907:
  2635   000D8E  2EE8               	decfsz	wreg,f,c
  2636   000D90  D7FE               	bra	u1907
  2637   000D92  D000               	nop2	
  2638   000D94                     
  2639                           ;clcd.c: 44:     clcd_write(0x33, 0 );
  2640   000D94  0E00               	movlw	0
  2641   000D96  6E01               	movwf	clcd_write@control_bit^0,c
  2642   000D98  0E33               	movlw	51
  2643   000D9A  ECFC  F008         	call	_clcd_write
  2644   000D9E                     
  2645                           ;clcd.c: 45:     _delay((unsigned long)((1)*(20000000/4000000.0)));
  2646   000D9E  D000               	nop2		;2 cycle nop
  2647   000DA0  D000               	nop2		;2 cycle nop
  2648   000DA2  F000               	nop	
  2649   000DA4                     
  2650                           ;clcd.c: 47:     clcd_write(0x02, 0);
  2651   000DA4  0E00               	movlw	0
  2652   000DA6  6E01               	movwf	clcd_write@control_bit^0,c
  2653   000DA8  0E02               	movlw	2
  2654   000DAA  ECFC  F008         	call	_clcd_write
  2655   000DAE                     
  2656                           ;clcd.c: 48:     _delay((unsigned long)((100)*(20000000/4000000.0)));
  2657   000DAE  0EA6               	movlw	166
  2658   000DB0                     u1917:
  2659   000DB0  2EE8               	decfsz	wreg,f,c
  2660   000DB2  D7FE               	bra	u1917
  2661   000DB4  D000               	nop2	
  2662   000DB6                     
  2663                           ;clcd.c: 49:     clcd_write(0x38, 0);
  2664   000DB6  0E00               	movlw	0
  2665   000DB8  6E01               	movwf	clcd_write@control_bit^0,c
  2666   000DBA  0E38               	movlw	56
  2667   000DBC  ECFC  F008         	call	_clcd_write
  2668   000DC0                     
  2669                           ;clcd.c: 50:     _delay((unsigned long)((100)*(20000000/4000000.0)));
  2670   000DC0  0EA6               	movlw	166
  2671   000DC2                     u1927:
  2672   000DC2  2EE8               	decfsz	wreg,f,c
  2673   000DC4  D7FE               	bra	u1927
  2674   000DC6  D000               	nop2	
  2675   000DC8                     
  2676                           ;clcd.c: 51:     clcd_write(0x01, 0);
  2677   000DC8  0E00               	movlw	0
  2678   000DCA  6E01               	movwf	clcd_write@control_bit^0,c
  2679   000DCC  0E01               	movlw	1
  2680   000DCE  ECFC  F008         	call	_clcd_write
  2681   000DD2                     
  2682                           ;clcd.c: 52:     _delay((unsigned long)((500)*(20000000/4000000.0)));
  2683   000DD2  0E04               	movlw	4
  2684   000DD4  6E03               	movwf	??_init_clcd^0,c
  2685   000DD6  0E3E               	movlw	62
  2686   000DD8                     u1937:
  2687   000DD8  2EE8               	decfsz	wreg,f,c
  2688   000DDA  D7FE               	bra	u1937
  2689   000DDC  2E03               	decfsz	??_init_clcd^0,f,c
  2690   000DDE  D7FC               	bra	u1937
  2691   000DE0                     
  2692                           ;clcd.c: 53:     clcd_write(0x0C, 0);
  2693   000DE0  0E00               	movlw	0
  2694   000DE2  6E01               	movwf	clcd_write@control_bit^0,c
  2695   000DE4  0E0C               	movlw	12
  2696   000DE6  ECFC  F008         	call	_clcd_write
  2697   000DEA                     
  2698                           ;clcd.c: 54:     _delay((unsigned long)((100)*(20000000/4000000.0)));
  2699   000DEA  0EA6               	movlw	166
  2700   000DEC                     u1947:
  2701   000DEC  2EE8               	decfsz	wreg,f,c
  2702   000DEE  D7FE               	bra	u1947
  2703   000DF0  D000               	nop2	
  2704   000DF2  0012               	return		;funcret
  2705   000DF4                     __end_of_init_clcd:
  2706                           	callstack 0
  2707                           
  2708 ;; *************** function _init_adc *****************
  2709 ;; Defined at:
  2710 ;;		line 3 in file "adc.c"
  2711 ;; Parameters:    Size  Location     Type
  2712 ;;		None
  2713 ;; Auto vars:     Size  Location     Type
  2714 ;;		None
  2715 ;; Return value:  Size  Location     Type
  2716 ;;                  1    wreg      void 
  2717 ;; Registers used:
  2718 ;;		None
  2719 ;; Tracked objects:
  2720 ;;		On entry : 0/0
  2721 ;;		On exit  : 0/0
  2722 ;;		Unchanged: 0/0
  2723 ;; Data sizes:     COMRAM   BANK0   BANK1   BANK2   BANK3   BANK4   BANK5
  2724 ;;      Params:         0       0       0       0       0       0       0
  2725 ;;      Locals:         0       0       0       0       0       0       0
  2726 ;;      Temps:          0       0       0       0       0       0       0
  2727 ;;      Totals:         0       0       0       0       0       0       0
  2728 ;;Total ram usage:        0 bytes
  2729 ;; Hardware stack levels used: 1
  2730 ;; Hardware stack levels required when called: 1
  2731 ;; This function calls:
  2732 ;;		Nothing
  2733 ;; This function is called by:
  2734 ;;		_init_config
  2735 ;; This function uses a non-reentrant model
  2736 ;;
  2737                           
  2738                           	psect	text13
  2739   00129A                     __ptext13:
  2740                           	callstack 0
  2741   00129A                     _init_adc:
  2742                           	callstack 28
  2743   00129A                     
  2744                           ;adc.c: 5:     ADON=1;
  2745   00129A  80C2               	bsf	4034,0,c	;volatile
  2746                           
  2747                           ;adc.c: 6:     VCFG1=0, VCFG0=0;
  2748   00129C  9AC1               	bcf	4033,5,c	;volatile
  2749   00129E  98C1               	bcf	4033,4,c	;volatile
  2750                           
  2751                           ;adc.c: 7:     PCFG3=1, PCFG2=0, PCFG1=1, PCFG0=0;
  2752   0012A0  86C1               	bsf	4033,3,c	;volatile
  2753   0012A2  94C1               	bcf	4033,2,c	;volatile
  2754   0012A4  82C1               	bsf	4033,1,c	;volatile
  2755   0012A6  90C1               	bcf	4033,0,c	;volatile
  2756                           
  2757                           ;adc.c: 8:     ACQT2=1, ACQT1=0, ACQT0=0;
  2758   0012A8  8AC0               	bsf	4032,5,c	;volatile
  2759   0012AA  98C0               	bcf	4032,4,c	;volatile
  2760   0012AC  96C0               	bcf	4032,3,c	;volatile
  2761                           
  2762                           ;adc.c: 9:     ADCS2=0, ADCS1=1, ADCS0=0;
  2763   0012AE  94C0               	bcf	4032,2,c	;volatile
  2764   0012B0  82C0               	bsf	4032,1,c	;volatile
  2765   0012B2  90C0               	bcf	4032,0,c	;volatile
  2766                           
  2767                           ;adc.c: 10:     ADFM=1;
  2768   0012B4  8EC0               	bsf	4032,7,c	;volatile
  2769   0012B6  0012               	return		;funcret
  2770   0012B8                     __end_of_init_adc:
  2771                           	callstack 0
  2772                           
  2773 ;; *************** function _display_dashboard *****************
  2774 ;; Defined at:
  2775 ;;		line 5 in file "car_black_box.c"
  2776 ;; Parameters:    Size  Location     Type
  2777 ;;  uckey           1    wreg     unsigned char 
  2778 ;;  usads           2   19[COMRAM] unsigned short 
  2779 ;; Auto vars:     Size  Location     Type
  2780 ;;  uckey           1   21[COMRAM] unsigned char 
  2781 ;; Return value:  Size  Location     Type
  2782 ;;                  1    wreg      void 
  2783 ;; Registers used:
  2784 ;;		wreg, fsr2l, fsr2h, status,2, status,0, tblptrl, tblptrh, tblptru, prodl, prodh, cstack
  2785 ;; Tracked objects:
  2786 ;;		On entry : 0/0
  2787 ;;		On exit  : 0/0
  2788 ;;		Unchanged: 0/0
  2789 ;; Data sizes:     COMRAM   BANK0   BANK1   BANK2   BANK3   BANK4   BANK5
  2790 ;;      Params:         2       0       0       0       0       0       0
  2791 ;;      Locals:         1       0       0       0       0       0       0
  2792 ;;      Temps:          0       0       0       0       0       0       0
  2793 ;;      Totals:         3       0       0       0       0       0       0
  2794 ;;Total ram usage:        3 bytes
  2795 ;; Hardware stack levels used: 1
  2796 ;; Hardware stack levels required when called: 4
  2797 ;; This function calls:
  2798 ;;		_clcd_print
  2799 ;;		_display_speed
  2800 ;;		_display_time
  2801 ;;		_gear_monitor
  2802 ;; This function is called by:
  2803 ;;		_main
  2804 ;; This function uses a non-reentrant model
  2805 ;;
  2806                           
  2807                           	psect	text14
  2808   00122A                     __ptext14:
  2809                           	callstack 0
  2810   00122A                     _display_dashboard:
  2811                           	callstack 26
  2812                           
  2813                           ;incstack = 0
  2814                           ;display_dashboard@uckey stored from wreg
  2815   00122A  6E16               	movwf	display_dashboard@uckey^0,c
  2816   00122C                     
  2817                           ;car_black_box.c: 5: void display_dashboard(unsigned char uckey, unsigned short usads);c
      +                          ar_black_box.c: 6: {;car_black_box.c: 7:     clcd_print( (unsigned char*) "   Time    E 
      +                           SP" , (0x80 + (0)));
  2818   00122C  0E90               	movlw	low STR_9
  2819   00122E  6E03               	movwf	clcd_print@data^0,c
  2820   001230  0E7F               	movlw	high STR_9
  2821   001232  6E04               	movwf	(clcd_print@data+1)^0,c
  2822   001234  0E80               	movlw	128
  2823   001236  6E05               	movwf	clcd_print@addr^0,c
  2824   001238  ECBF  F008         	call	_clcd_print	;wreg free
  2825                           
  2826                           ;car_black_box.c: 9:     display_time();
  2827   00123C  EC7E  F009         	call	_display_time	;wreg free
  2828   001240                     
  2829                           ;car_black_box.c: 10:     gear_monitor(uckey);
  2830   001240  5016               	movf	display_dashboard@uckey^0,w,c
  2831   001242  EC63  F005         	call	_gear_monitor
  2832   001246                     
  2833                           ;car_black_box.c: 11:     display_speed(usads);
  2834   001246  C014  F011         	movff	display_dashboard@usads,display_speed@usadc
  2835   00124A  C015  F012         	movff	display_dashboard@usads+1,display_speed@usadc+1
  2836   00124E  EC70  F008         	call	_display_speed	;wreg free
  2837   001252  0012               	return		;funcret
  2838   001254                     __end_of_display_dashboard:
  2839                           	callstack 0
  2840                           
  2841 ;; *************** function _gear_monitor *****************
  2842 ;; Defined at:
  2843 ;;		line 17 in file "car_black_box.c"
  2844 ;; Parameters:    Size  Location     Type
  2845 ;;  uckey           1    wreg     unsigned char 
  2846 ;; Auto vars:     Size  Location     Type
  2847 ;;  uckey           1   18[COMRAM] unsigned char 
  2848 ;; Return value:  Size  Location     Type
  2849 ;;                  1    wreg      void 
  2850 ;; Registers used:
  2851 ;;		wreg, fsr2l, fsr2h, status,2, status,0, tblptrl, tblptrh, tblptru, prodl, prodh, cstack
  2852 ;; Tracked objects:
  2853 ;;		On entry : 0/0
  2854 ;;		On exit  : 0/0
  2855 ;;		Unchanged: 0/0
  2856 ;; Data sizes:     COMRAM   BANK0   BANK1   BANK2   BANK3   BANK4   BANK5
  2857 ;;      Params:         0       0       0       0       0       0       0
  2858 ;;      Locals:         1       0       0       0       0       0       0
  2859 ;;      Temps:          2       0       0       0       0       0       0
  2860 ;;      Totals:         3       0       0       0       0       0       0
  2861 ;;Total ram usage:        3 bytes
  2862 ;; Hardware stack levels used: 1
  2863 ;; Hardware stack levels required when called: 3
  2864 ;; This function calls:
  2865 ;;		_clcd_putch
  2866 ;; This function is called by:
  2867 ;;		_display_dashboard
  2868 ;; This function uses a non-reentrant model
  2869 ;;
  2870                           
  2871                           	psect	text15
  2872   000AC6                     __ptext15:
  2873                           	callstack 0
  2874   000AC6                     _gear_monitor:
  2875                           	callstack 26
  2876                           
  2877                           ;incstack = 0
  2878                           ;gear_monitor@uckey stored from wreg
  2879   000AC6  6E13               	movwf	gear_monitor@uckey^0,c
  2880   000AC8                     
  2881                           ;car_black_box.c: 18:     static char signindex=0, crashflag=0;;car_black_box.c: 19:    
      +                           if(uckey == 1)
  2882   000AC8  0413               	decf	gear_monitor@uckey^0,w,c
  2883   000ACA  A4D8               	btfss	status,2,c
  2884   000ACC  EF6A  F005         	goto	u1181
  2885   000AD0  EF6C  F005         	goto	u1180
  2886   000AD4                     u1181:
  2887   000AD4  EF72  F005         	goto	l1878
  2888   000AD8                     u1180:
  2889   000AD8                     
  2890                           ;car_black_box.c: 20:     {;car_black_box.c: 21:         crashflag=1;
  2891   000AD8  0E01               	movlw	1
  2892   000ADA  6E51               	movwf	gear_monitor@crashflag^0,c
  2893                           
  2894                           ;car_black_box.c: 22:         signindex=7;
  2895   000ADC  0E07               	movlw	7
  2896   000ADE  6E52               	movwf	gear_monitor@signindex^0,c
  2897                           
  2898                           ;car_black_box.c: 23:     }
  2899   000AE0  EFB1  F005         	goto	l1896
  2900   000AE4                     l1878:
  2901   000AE4  0E02               	movlw	2
  2902   000AE6  1813               	xorwf	gear_monitor@uckey^0,w,c
  2903   000AE8  A4D8               	btfss	status,2,c
  2904   000AEA  EF79  F005         	goto	u1191
  2905   000AEE  EF7B  F005         	goto	u1190
  2906   000AF2                     u1191:
  2907   000AF2  EF95  F005         	goto	l1888
  2908   000AF6                     u1190:
  2909   000AF6                     
  2910                           ;car_black_box.c: 25:     {;car_black_box.c: 26:         if(signindex < 6)
  2911   000AF6  0E06               	movlw	6
  2912   000AF8  6052               	cpfslt	gear_monitor@signindex^0,c
  2913   000AFA  EF81  F005         	goto	u1201
  2914   000AFE  EF83  F005         	goto	u1200
  2915   000B02                     u1201:
  2916   000B02  EF86  F005         	goto	l1884
  2917   000B06                     u1200:
  2918   000B06                     
  2919                           ;car_black_box.c: 27:             signindex++;
  2920   000B06  2A52               	incf	gear_monitor@signindex^0,f,c
  2921   000B08  EFB1  F005         	goto	l1896
  2922   000B0C                     l1884:
  2923   000B0C  0E07               	movlw	7
  2924   000B0E  1852               	xorwf	gear_monitor@signindex^0,w,c
  2925   000B10  A4D8               	btfss	status,2,c
  2926   000B12  EF8D  F005         	goto	u1211
  2927   000B16  EF8F  F005         	goto	u1210
  2928   000B1A                     u1211:
  2929   000B1A  EFB1  F005         	goto	l120
  2930   000B1E                     u1210:
  2931   000B1E                     
  2932                           ;car_black_box.c: 29:         {;car_black_box.c: 30:             signindex=1;
  2933   000B1E  0E01               	movlw	1
  2934   000B20  6E52               	movwf	gear_monitor@signindex^0,c
  2935                           
  2936                           ;car_black_box.c: 31:             crashflag=0;
  2937   000B22  0E00               	movlw	0
  2938   000B24  6E51               	movwf	gear_monitor@crashflag^0,c
  2939   000B26  EFB1  F005         	goto	l1896
  2940   000B2A                     l1888:
  2941   000B2A  0E03               	movlw	3
  2942   000B2C  1813               	xorwf	gear_monitor@uckey^0,w,c
  2943   000B2E  A4D8               	btfss	status,2,c
  2944   000B30  EF9C  F005         	goto	u1221
  2945   000B34  EF9E  F005         	goto	u1220
  2946   000B38                     u1221:
  2947   000B38  EFB1  F005         	goto	l1896
  2948   000B3C                     u1220:
  2949   000B3C                     
  2950                           ;car_black_box.c: 35:     {;car_black_box.c: 36:           if(crashflag ==0 && signindex
      +                           > 1)
  2951   000B3C  5051               	movf	gear_monitor@crashflag^0,w,c
  2952   000B3E  A4D8               	btfss	status,2,c
  2953   000B40  EFA4  F005         	goto	u1231
  2954   000B44  EFA6  F005         	goto	u1230
  2955   000B48                     u1231:
  2956   000B48  EFB1  F005         	goto	l120
  2957   000B4C                     u1230:
  2958   000B4C  0E01               	movlw	1
  2959   000B4E  6452               	cpfsgt	gear_monitor@signindex^0,c
  2960   000B50  EFAC  F005         	goto	u1241
  2961   000B54  EFAE  F005         	goto	u1240
  2962   000B58                     u1241:
  2963   000B58  EFB1  F005         	goto	l120
  2964   000B5C                     u1240:
  2965   000B5C                     
  2966                           ;car_black_box.c: 37:               signindex--;
  2967   000B5C  0652               	decf	gear_monitor@signindex^0,f,c
  2968   000B5E  EFB1  F005         	goto	l1896
  2969   000B62                     l120:
  2970   000B62                     l1896:
  2971                           
  2972                           ;car_black_box.c: 39:     clcd_putch(signature[signindex][0], (0xC0 + (11)));
  2973   000B62  0ECB               	movlw	203
  2974   000B64  6E0F               	movwf	clcd_putch@addr^0,c
  2975   000B66  5052               	movf	gear_monitor@signindex^0,w,c
  2976   000B68  0D02               	mullw	2
  2977   000B6A  0E60               	movlw	low _signature
  2978   000B6C  24F3               	addwf	243,w,c
  2979   000B6E  6ED9               	movwf	fsr2l,c
  2980   000B70  0E00               	movlw	high _signature
  2981   000B72  20F4               	addwfc	prodh,w,c
  2982   000B74  6EDA               	movwf	fsr2h,c
  2983   000B76  CFDE FFF6          	movff	postinc2,tblptrl
  2984   000B7A  CFDD FFF7          	movff	postdec2,tblptrh
  2985   000B7E                     	if	0	;tblptru may be non-zero
  2986   000B7E                     	endif
  2987   000B7E                     	if	0	;tblptru may be non-zero
  2988   000B7E                     	endif
  2989   000B7E  0008               	tblrd		*
  2990   000B80  50F5               	movf	tablat,w,c
  2991   000B82  EC69  F009         	call	_clcd_putch
  2992   000B86                     
  2993                           ;car_black_box.c: 40:     clcd_putch(signature[signindex][1], (0xC0 + (12)));
  2994   000B86  0ECC               	movlw	204
  2995   000B88  6E0F               	movwf	clcd_putch@addr^0,c
  2996   000B8A  5052               	movf	gear_monitor@signindex^0,w,c
  2997   000B8C  0D02               	mullw	2
  2998   000B8E  0E60               	movlw	low _signature
  2999   000B90  24F3               	addwf	243,w,c
  3000   000B92  6ED9               	movwf	fsr2l,c
  3001   000B94  0E00               	movlw	high _signature
  3002   000B96  20F4               	addwfc	prodh,w,c
  3003   000B98  6EDA               	movwf	fsr2h,c
  3004   000B9A  CFDE F011          	movff	postinc2,??_gear_monitor
  3005   000B9E  CFDD F012          	movff	postdec2,??_gear_monitor+1
  3006   000BA2  0E01               	movlw	1
  3007   000BA4  2611               	addwf	??_gear_monitor^0,f,c
  3008   000BA6  0E00               	movlw	0
  3009   000BA8  2212               	addwfc	(??_gear_monitor+1)^0,f,c
  3010   000BAA  C011  FFF6         	movff	??_gear_monitor,tblptrl
  3011   000BAE  C012  FFF7         	movff	??_gear_monitor+1,tblptrh
  3012   000BB2                     	if	0	;tblptru may be non-zero
  3013   000BB2                     	endif
  3014   000BB2                     	if	0	;tblptru may be non-zero
  3015   000BB2                     	endif
  3016   000BB2  0008               	tblrd		*
  3017   000BB4  50F5               	movf	tablat,w,c
  3018   000BB6  EC69  F009         	call	_clcd_putch
  3019   000BBA  0012               	return		;funcret
  3020   000BBC                     __end_of_gear_monitor:
  3021                           	callstack 0
  3022                           
  3023 ;; *************** function _display_time *****************
  3024 ;; Defined at:
  3025 ;;		line 13 in file "car_black_box.c"
  3026 ;; Parameters:    Size  Location     Type
  3027 ;;		None
  3028 ;; Auto vars:     Size  Location     Type
  3029 ;;		None
  3030 ;; Return value:  Size  Location     Type
  3031 ;;                  1    wreg      void 
  3032 ;; Registers used:
  3033 ;;		wreg, status,2, status,0, tblptrl, tblptrh, tblptru, cstack
  3034 ;; Tracked objects:
  3035 ;;		On entry : 0/0
  3036 ;;		On exit  : 0/0
  3037 ;;		Unchanged: 0/0
  3038 ;; Data sizes:     COMRAM   BANK0   BANK1   BANK2   BANK3   BANK4   BANK5
  3039 ;;      Params:         0       0       0       0       0       0       0
  3040 ;;      Locals:         0       0       0       0       0       0       0
  3041 ;;      Temps:          0       0       0       0       0       0       0
  3042 ;;      Totals:         0       0       0       0       0       0       0
  3043 ;;Total ram usage:        0 bytes
  3044 ;; Hardware stack levels used: 1
  3045 ;; Hardware stack levels required when called: 3
  3046 ;; This function calls:
  3047 ;;		_clcd_print
  3048 ;; This function is called by:
  3049 ;;		_display_dashboard
  3050 ;; This function uses a non-reentrant model
  3051 ;;
  3052                           
  3053                           	psect	text16
  3054   0012FC                     __ptext16:
  3055                           	callstack 0
  3056   0012FC                     _display_time:
  3057                           	callstack 26
  3058   0012FC                     
  3059                           ;car_black_box.c: 14:     clcd_print( (unsigned char*) " 10:00:00", (0xC0 + (0)));
  3060   0012FC  0ECF               	movlw	low STR_10
  3061   0012FE  6E03               	movwf	clcd_print@data^0,c
  3062   001300  0E7F               	movlw	high STR_10
  3063   001302  6E04               	movwf	(clcd_print@data+1)^0,c
  3064   001304  0EC0               	movlw	192
  3065   001306  6E05               	movwf	clcd_print@addr^0,c
  3066   001308  ECBF  F008         	call	_clcd_print	;wreg free
  3067   00130C  0012               	return		;funcret
  3068   00130E                     __end_of_display_time:
  3069                           	callstack 0
  3070                           
  3071 ;; *************** function _clcd_print *****************
  3072 ;; Defined at:
  3073 ;;		line 57 in file "clcd.c"
  3074 ;; Parameters:    Size  Location     Type
  3075 ;;  data            2    2[COMRAM] PTR const unsigned char 
  3076 ;;		 -> STR_27(17), STR_26(17), STR_20(5), STR_19(9), 
  3077 ;;		 -> STR_18(15), STR_17(16), STR_16(15), STR_15(17), 
  3078 ;;		 -> STR_14(17), STR_13(17), STR_12(17), STR_11(17), 
  3079 ;;		 -> STR_10(10), STR_9(17), 
  3080 ;;  addr            1    4[COMRAM] unsigned char 
  3081 ;; Auto vars:     Size  Location     Type
  3082 ;;		None
  3083 ;; Return value:  Size  Location     Type
  3084 ;;                  1    wreg      void 
  3085 ;; Registers used:
  3086 ;;		wreg, status,2, status,0, tblptrl, tblptrh, tblptru, cstack
  3087 ;; Tracked objects:
  3088 ;;		On entry : 0/0
  3089 ;;		On exit  : 0/0
  3090 ;;		Unchanged: 0/0
  3091 ;; Data sizes:     COMRAM   BANK0   BANK1   BANK2   BANK3   BANK4   BANK5
  3092 ;;      Params:         3       0       0       0       0       0       0
  3093 ;;      Locals:         0       0       0       0       0       0       0
  3094 ;;      Temps:          0       0       0       0       0       0       0
  3095 ;;      Totals:         3       0       0       0       0       0       0
  3096 ;;Total ram usage:        3 bytes
  3097 ;; Hardware stack levels used: 1
  3098 ;; Hardware stack levels required when called: 2
  3099 ;; This function calls:
  3100 ;;		_clcd_write
  3101 ;; This function is called by:
  3102 ;;		_display_dashboard
  3103 ;;		_display_time
  3104 ;;		_logscreen
  3105 ;;		_timeleft
  3106 ;;		_scrolllog
  3107 ;; This function uses a non-reentrant model
  3108 ;;
  3109                           
  3110                           	psect	text17
  3111   00117E                     __ptext17:
  3112                           	callstack 0
  3113   00117E                     _clcd_print:
  3114                           	callstack 27
  3115   00117E                     
  3116                           ;clcd.c: 57: void clcd_print(const unsigned char *data, unsigned char addr);clcd.c: 58: 
      +                          {;clcd.c: 59:  clcd_write(addr, 0);
  3117   00117E  0E00               	movlw	0
  3118   001180  6E01               	movwf	clcd_write@control_bit^0,c
  3119   001182  5005               	movf	clcd_print@addr^0,w,c
  3120   001184  ECFC  F008         	call	_clcd_write
  3121                           
  3122                           ;clcd.c: 60:  while (*data != '\0')
  3123   001188  EFD2  F008         	goto	l1730
  3124   00118C                     l1726:
  3125                           
  3126                           ;clcd.c: 61:  {;clcd.c: 62:   clcd_write(*data++, 1);
  3127   00118C  0E01               	movlw	1
  3128   00118E  6E01               	movwf	clcd_write@control_bit^0,c
  3129   001190  C003  FFF6         	movff	clcd_print@data,tblptrl
  3130   001194  C004  FFF7         	movff	clcd_print@data+1,tblptrh
  3131   001198                     	if	0	;tblptru may be non-zero
  3132   001198                     	endif
  3133   001198                     	if	0	;tblptru may be non-zero
  3134   001198                     	endif
  3135   001198  0008               	tblrd		*
  3136   00119A  50F5               	movf	tablat,w,c
  3137   00119C  ECFC  F008         	call	_clcd_write
  3138   0011A0  4A03               	infsnz	clcd_print@data^0,f,c
  3139   0011A2  2A04               	incf	(clcd_print@data+1)^0,f,c
  3140   0011A4                     l1730:
  3141                           
  3142                           ;clcd.c: 60:  while (*data != '\0')
  3143   0011A4  C003  FFF6         	movff	clcd_print@data,tblptrl
  3144   0011A8  C004  FFF7         	movff	clcd_print@data+1,tblptrh
  3145   0011AC                     	if	0	;tblptru may be non-zero
  3146   0011AC                     	endif
  3147   0011AC                     	if	0	;tblptru may be non-zero
  3148   0011AC                     	endif
  3149   0011AC  0008               	tblrd		*
  3150   0011AE  50F5               	movf	tablat,w,c
  3151   0011B0  0900               	iorlw	0
  3152   0011B2  A4D8               	btfss	status,2,c
  3153   0011B4  EFDE  F008         	goto	u1021
  3154   0011B8  EFE0  F008         	goto	u1020
  3155   0011BC                     u1021:
  3156   0011BC  EFC6  F008         	goto	l1726
  3157   0011C0                     u1020:
  3158   0011C0  0012               	return		;funcret
  3159   0011C2                     __end_of_clcd_print:
  3160                           	callstack 0
  3161                           
  3162 ;; *************** function _display_speed *****************
  3163 ;; Defined at:
  3164 ;;		line 42 in file "car_black_box.c"
  3165 ;; Parameters:    Size  Location     Type
  3166 ;;  usadc           2   16[COMRAM] unsigned short 
  3167 ;; Auto vars:     Size  Location     Type
  3168 ;;		None
  3169 ;; Return value:  Size  Location     Type
  3170 ;;                  1    wreg      void 
  3171 ;; Registers used:
  3172 ;;		wreg, status,2, status,0, cstack
  3173 ;; Tracked objects:
  3174 ;;		On entry : 0/0
  3175 ;;		On exit  : 0/0
  3176 ;;		Unchanged: 0/0
  3177 ;; Data sizes:     COMRAM   BANK0   BANK1   BANK2   BANK3   BANK4   BANK5
  3178 ;;      Params:         2       0       0       0       0       0       0
  3179 ;;      Locals:         0       0       0       0       0       0       0
  3180 ;;      Temps:          0       0       0       0       0       0       0
  3181 ;;      Totals:         2       0       0       0       0       0       0
  3182 ;;Total ram usage:        2 bytes
  3183 ;; Hardware stack levels used: 1
  3184 ;; Hardware stack levels required when called: 3
  3185 ;; This function calls:
  3186 ;;		___awmod
  3187 ;;		___lwdiv
  3188 ;;		_clcd_putch
  3189 ;; This function is called by:
  3190 ;;		_display_dashboard
  3191 ;; This function uses a non-reentrant model
  3192 ;;
  3193                           
  3194                           	psect	text18
  3195   0010E0                     __ptext18:
  3196                           	callstack 0
  3197   0010E0                     _display_speed:
  3198                           	callstack 26
  3199   0010E0                     
  3200                           ;car_black_box.c: 43:         clcd_putch((unsigned char)(usadc/10)%10+48, (0xC0 + (14)))
      +                          ;
  3201   0010E0  0ECE               	movlw	206
  3202   0010E2  6E0F               	movwf	clcd_putch@addr^0,c
  3203   0010E4  0E00               	movlw	0
  3204   0010E6  6E04               	movwf	(___lwdiv@divisor+1)^0,c
  3205   0010E8  0E0A               	movlw	10
  3206   0010EA  6E03               	movwf	___lwdiv@divisor^0,c
  3207   0010EC  C011  F001         	movff	display_speed@usadc,___lwdiv@dividend
  3208   0010F0  C012  F002         	movff	display_speed@usadc+1,___lwdiv@dividend+1
  3209   0010F4  ECD5  F007         	call	___lwdiv	;wreg free
  3210   0010F8  5001               	movf	?___lwdiv^0,w,c
  3211   0010FA  6E09               	movwf	___awmod@dividend^0,c
  3212   0010FC  6A0A               	clrf	(___awmod@dividend+1)^0,c
  3213   0010FE  0E00               	movlw	0
  3214   001100  6E0C               	movwf	(___awmod@divisor+1)^0,c
  3215   001102  0E0A               	movlw	10
  3216   001104  6E0B               	movwf	___awmod@divisor^0,c
  3217   001106  ECFA  F006         	call	___awmod	;wreg free
  3218   00110A  5009               	movf	?___awmod^0,w,c
  3219   00110C  0F30               	addlw	48
  3220   00110E  EC69  F009         	call	_clcd_putch
  3221                           
  3222                           ;car_black_box.c: 44:         clcd_putch((unsigned char)usadc%10+48, (0xC0 + (15)));
  3223   001112  0ECF               	movlw	207
  3224   001114  6E0F               	movwf	clcd_putch@addr^0,c
  3225   001116  C011  F009         	movff	display_speed@usadc,___awmod@dividend
  3226   00111A  6A0A               	clrf	(___awmod@dividend+1)^0,c
  3227   00111C  0E00               	movlw	0
  3228   00111E  6E0C               	movwf	(___awmod@divisor+1)^0,c
  3229   001120  0E0A               	movlw	10
  3230   001122  6E0B               	movwf	___awmod@divisor^0,c
  3231   001124  ECFA  F006         	call	___awmod	;wreg free
  3232   001128  5009               	movf	?___awmod^0,w,c
  3233   00112A  0F30               	addlw	48
  3234   00112C  EC69  F009         	call	_clcd_putch
  3235   001130  0012               	return		;funcret
  3236   001132                     __end_of_display_speed:
  3237                           	callstack 0
  3238                           
  3239 ;; *************** function _clcd_putch *****************
  3240 ;; Defined at:
  3241 ;;		line 66 in file "clcd.c"
  3242 ;; Parameters:    Size  Location     Type
  3243 ;;  data            1    wreg     const unsigned char 
  3244 ;;  addr            1   14[COMRAM] unsigned char 
  3245 ;; Auto vars:     Size  Location     Type
  3246 ;;  data            1   15[COMRAM] const unsigned char 
  3247 ;; Return value:  Size  Location     Type
  3248 ;;                  1    wreg      void 
  3249 ;; Registers used:
  3250 ;;		wreg, status,2, cstack
  3251 ;; Tracked objects:
  3252 ;;		On entry : 0/0
  3253 ;;		On exit  : 0/0
  3254 ;;		Unchanged: 0/0
  3255 ;; Data sizes:     COMRAM   BANK0   BANK1   BANK2   BANK3   BANK4   BANK5
  3256 ;;      Params:         1       0       0       0       0       0       0
  3257 ;;      Locals:         1       0       0       0       0       0       0
  3258 ;;      Temps:          0       0       0       0       0       0       0
  3259 ;;      Totals:         2       0       0       0       0       0       0
  3260 ;;Total ram usage:        2 bytes
  3261 ;; Hardware stack levels used: 1
  3262 ;; Hardware stack levels required when called: 2
  3263 ;; This function calls:
  3264 ;;		_clcd_write
  3265 ;; This function is called by:
  3266 ;;		_gear_monitor
  3267 ;;		_display_speed
  3268 ;;		_logscreen
  3269 ;;		_timeleft
  3270 ;; This function uses a non-reentrant model
  3271 ;;
  3272                           
  3273                           	psect	text19
  3274   0012D2                     __ptext19:
  3275                           	callstack 0
  3276   0012D2                     _clcd_putch:
  3277                           	callstack 26
  3278                           
  3279                           ;incstack = 0
  3280                           ;clcd_putch@data stored from wreg
  3281   0012D2  6E10               	movwf	clcd_putch@data^0,c
  3282   0012D4                     
  3283                           ;clcd.c: 66: void clcd_putch(const unsigned char data, unsigned char addr);clcd.c: 67: {
      +                          ;clcd.c: 68:  clcd_write(addr, 0);
  3284   0012D4  0E00               	movlw	0
  3285   0012D6  6E01               	movwf	clcd_write@control_bit^0,c
  3286   0012D8  500F               	movf	clcd_putch@addr^0,w,c
  3287   0012DA  ECFC  F008         	call	_clcd_write
  3288                           
  3289                           ;clcd.c: 69:  clcd_write(data, 1);
  3290   0012DE  0E01               	movlw	1
  3291   0012E0  6E01               	movwf	clcd_write@control_bit^0,c
  3292   0012E2  5010               	movf	clcd_putch@data^0,w,c
  3293   0012E4  ECFC  F008         	call	_clcd_write
  3294   0012E8  0012               	return		;funcret
  3295   0012EA                     __end_of_clcd_putch:
  3296                           	callstack 0
  3297                           
  3298 ;; *************** function _clcd_write *****************
  3299 ;; Defined at:
  3300 ;;		line 3 in file "clcd.c"
  3301 ;; Parameters:    Size  Location     Type
  3302 ;;  byte            1    wreg     unsigned char 
  3303 ;;  control_bit     1    0[COMRAM] unsigned char 
  3304 ;; Auto vars:     Size  Location     Type
  3305 ;;  byte            1    1[COMRAM] unsigned char 
  3306 ;; Return value:  Size  Location     Type
  3307 ;;                  1    wreg      void 
  3308 ;; Registers used:
  3309 ;;		wreg
  3310 ;; Tracked objects:
  3311 ;;		On entry : 0/0
  3312 ;;		On exit  : 0/0
  3313 ;;		Unchanged: 0/0
  3314 ;; Data sizes:     COMRAM   BANK0   BANK1   BANK2   BANK3   BANK4   BANK5
  3315 ;;      Params:         1       0       0       0       0       0       0
  3316 ;;      Locals:         1       0       0       0       0       0       0
  3317 ;;      Temps:          0       0       0       0       0       0       0
  3318 ;;      Totals:         2       0       0       0       0       0       0
  3319 ;;Total ram usage:        2 bytes
  3320 ;; Hardware stack levels used: 1
  3321 ;; Hardware stack levels required when called: 1
  3322 ;; This function calls:
  3323 ;;		Nothing
  3324 ;; This function is called by:
  3325 ;;		_main
  3326 ;;		_init_clcd
  3327 ;;		_clcd_print
  3328 ;;		_clcd_putch
  3329 ;;		_logscreen
  3330 ;;		_timeleft
  3331 ;; This function uses a non-reentrant model
  3332 ;;
  3333                           
  3334                           	psect	text20
  3335   0011F8                     __ptext20:
  3336                           	callstack 0
  3337   0011F8                     _clcd_write:
  3338                           	callstack 27
  3339                           
  3340                           ;incstack = 0
  3341                           ;clcd_write@byte stored from wreg
  3342   0011F8  6E02               	movwf	clcd_write@byte^0,c
  3343   0011FA                     
  3344                           ;clcd.c: 3: void clcd_write(unsigned char byte, unsigned char control_bit);clcd.c: 4: {;
      +                          clcd.c: 5:  PORTCbits.RC1 = control_bit;
  3345   0011FA  B001               	btfsc	clcd_write@control_bit^0,0,c
  3346   0011FC  D002               	bra	u1005
  3347   0011FE  9282               	bcf	130,1,c	;volatile
  3348   001200  D001               	bra	u1006
  3349   001202                     u1005:
  3350   001202  8282               	bsf	130,1,c	;volatile
  3351   001204                     u1006:
  3352   001204                     
  3353                           ;clcd.c: 6:  PORTD = byte;
  3354   001204  C002  FF83         	movff	clcd_write@byte,3971	;volatile
  3355   001208                     
  3356                           ;clcd.c: 9:  PORTCbits.RC2 = 1;
  3357   001208  8482               	bsf	130,2,c	;volatile
  3358   00120A                     
  3359                           ;clcd.c: 10:  PORTCbits.RC2 = 0;
  3360   00120A  9482               	bcf	130,2,c	;volatile
  3361   00120C                     
  3362                           ;clcd.c: 12:  TRISD7 = 1;
  3363   00120C  8E95               	bsf	3989,7,c	;volatile
  3364   00120E                     
  3365                           ;clcd.c: 13:  PORTCbits.RC0 = 1;
  3366   00120E  8082               	bsf	130,0,c	;volatile
  3367   001210                     
  3368                           ;clcd.c: 14:  PORTCbits.RC1 = 0;
  3369   001210  9282               	bcf	130,1,c	;volatile
  3370   001212                     l1718:
  3371                           
  3372                           ;clcd.c: 17:  {;clcd.c: 18:   PORTCbits.RC2 = 1;
  3373   001212  8482               	bsf	130,2,c	;volatile
  3374   001214                     
  3375                           ;clcd.c: 19:   PORTCbits.RC2 = 0;
  3376   001214  9482               	bcf	130,2,c	;volatile
  3377   001216                     
  3378                           ;clcd.c: 20:  } while (PORTDbits.RD7);
  3379   001216  BE83               	btfsc	131,7,c	;volatile
  3380   001218  EF10  F009         	goto	u1011
  3381   00121C  EF12  F009         	goto	u1010
  3382   001220                     u1011:
  3383   001220  EF09  F009         	goto	l1718
  3384   001224                     u1010:
  3385   001224                     
  3386                           ;clcd.c: 22:  PORTCbits.RC0 = 0;
  3387   001224  9082               	bcf	130,0,c	;volatile
  3388                           
  3389                           ;clcd.c: 23:  TRISD7 = 0x00;
  3390   001226  9E95               	bcf	3989,7,c	;volatile
  3391   001228  0012               	return		;funcret
  3392   00122A                     __end_of_clcd_write:
  3393                           	callstack 0
  3394                           
  3395 ;; *************** function ___lwdiv *****************
  3396 ;; Defined at:
  3397 ;;		line 7 in file "C:\Program Files\Microchip\xc8\v2.41\pic\sources\c99\common\lwdiv.c"
  3398 ;; Parameters:    Size  Location     Type
  3399 ;;  dividend        2    0[COMRAM] unsigned int 
  3400 ;;  divisor         2    2[COMRAM] unsigned int 
  3401 ;; Auto vars:     Size  Location     Type
  3402 ;;  quotient        2    4[COMRAM] unsigned int 
  3403 ;;  counter         1    6[COMRAM] unsigned char 
  3404 ;; Return value:  Size  Location     Type
  3405 ;;                  2    0[COMRAM] unsigned int 
  3406 ;; Registers used:
  3407 ;;		wreg, status,2, status,0
  3408 ;; Tracked objects:
  3409 ;;		On entry : 0/0
  3410 ;;		On exit  : 0/0
  3411 ;;		Unchanged: 0/0
  3412 ;; Data sizes:     COMRAM   BANK0   BANK1   BANK2   BANK3   BANK4   BANK5
  3413 ;;      Params:         4       0       0       0       0       0       0
  3414 ;;      Locals:         3       0       0       0       0       0       0
  3415 ;;      Temps:          0       0       0       0       0       0       0
  3416 ;;      Totals:         7       0       0       0       0       0       0
  3417 ;;Total ram usage:        7 bytes
  3418 ;; Hardware stack levels used: 1
  3419 ;; Hardware stack levels required when called: 1
  3420 ;; This function calls:
  3421 ;;		Nothing
  3422 ;; This function is called by:
  3423 ;;		_display_speed
  3424 ;; This function uses a non-reentrant model
  3425 ;;
  3426                           
  3427                           	psect	text21
  3428   000FAA                     __ptext21:
  3429                           	callstack 0
  3430   000FAA                     ___lwdiv:
  3431                           	callstack 27
  3432   000FAA  0E00               	movlw	0
  3433   000FAC  6E06               	movwf	(___lwdiv@quotient+1)^0,c
  3434   000FAE  0E00               	movlw	0
  3435   000FB0  6E05               	movwf	___lwdiv@quotient^0,c
  3436   000FB2  5003               	movf	___lwdiv@divisor^0,w,c
  3437   000FB4  1004               	iorwf	(___lwdiv@divisor+1)^0,w,c
  3438   000FB6  B4D8               	btfsc	status,2,c
  3439   000FB8  EFE0  F007         	goto	u1151
  3440   000FBC  EFE2  F007         	goto	u1150
  3441   000FC0                     u1151:
  3442   000FC0  EF0A  F008         	goto	l822
  3443   000FC4                     u1150:
  3444   000FC4  0E01               	movlw	1
  3445   000FC6  6E07               	movwf	___lwdiv@counter^0,c
  3446   000FC8  EFEA  F007         	goto	l1822
  3447   000FCC                     l1820:
  3448   000FCC  90D8               	bcf	status,0,c
  3449   000FCE  3603               	rlcf	___lwdiv@divisor^0,f,c
  3450   000FD0  3604               	rlcf	(___lwdiv@divisor+1)^0,f,c
  3451   000FD2  2A07               	incf	___lwdiv@counter^0,f,c
  3452   000FD4                     l1822:
  3453   000FD4  AE04               	btfss	(___lwdiv@divisor+1)^0,7,c
  3454   000FD6  EFEF  F007         	goto	u1161
  3455   000FDA  EFF1  F007         	goto	u1160
  3456   000FDE                     u1161:
  3457   000FDE  EFE6  F007         	goto	l1820
  3458   000FE2                     u1160:
  3459   000FE2                     l1824:
  3460   000FE2  90D8               	bcf	status,0,c
  3461   000FE4  3605               	rlcf	___lwdiv@quotient^0,f,c
  3462   000FE6  3606               	rlcf	(___lwdiv@quotient+1)^0,f,c
  3463   000FE8  5003               	movf	___lwdiv@divisor^0,w,c
  3464   000FEA  5C01               	subwf	___lwdiv@dividend^0,w,c
  3465   000FEC  5004               	movf	(___lwdiv@divisor+1)^0,w,c
  3466   000FEE  5802               	subwfb	(___lwdiv@dividend+1)^0,w,c
  3467   000FF0  A0D8               	btfss	status,0,c
  3468   000FF2  EFFD  F007         	goto	u1171
  3469   000FF6  EFFF  F007         	goto	u1170
  3470   000FFA                     u1171:
  3471   000FFA  EF04  F008         	goto	l1832
  3472   000FFE                     u1170:
  3473   000FFE  5003               	movf	___lwdiv@divisor^0,w,c
  3474   001000  5E01               	subwf	___lwdiv@dividend^0,f,c
  3475   001002  5004               	movf	(___lwdiv@divisor+1)^0,w,c
  3476   001004  5A02               	subwfb	(___lwdiv@dividend+1)^0,f,c
  3477   001006  8005               	bsf	___lwdiv@quotient^0,0,c
  3478   001008                     l1832:
  3479   001008  90D8               	bcf	status,0,c
  3480   00100A  3204               	rrcf	(___lwdiv@divisor+1)^0,f,c
  3481   00100C  3203               	rrcf	___lwdiv@divisor^0,f,c
  3482   00100E  2E07               	decfsz	___lwdiv@counter^0,f,c
  3483   001010  EFF1  F007         	goto	l1824
  3484   001014                     l822:
  3485   001014  C005  F001         	movff	___lwdiv@quotient,?___lwdiv
  3486   001018  C006  F002         	movff	___lwdiv@quotient+1,?___lwdiv+1
  3487   00101C  0012               	return		;funcret
  3488   00101E                     __end_of___lwdiv:
  3489                           	callstack 0
  3490                           
  3491 ;; *************** function ___awmod *****************
  3492 ;; Defined at:
  3493 ;;		line 7 in file "C:\Program Files\Microchip\xc8\v2.41\pic\sources\c99\common\awmod.c"
  3494 ;; Parameters:    Size  Location     Type
  3495 ;;  dividend        2    8[COMRAM] int 
  3496 ;;  divisor         2   10[COMRAM] int 
  3497 ;; Auto vars:     Size  Location     Type
  3498 ;;  sign            1   13[COMRAM] unsigned char 
  3499 ;;  counter         1   12[COMRAM] unsigned char 
  3500 ;; Return value:  Size  Location     Type
  3501 ;;                  2    8[COMRAM] int 
  3502 ;; Registers used:
  3503 ;;		wreg, status,2, status,0
  3504 ;; Tracked objects:
  3505 ;;		On entry : 0/0
  3506 ;;		On exit  : 0/0
  3507 ;;		Unchanged: 0/0
  3508 ;; Data sizes:     COMRAM   BANK0   BANK1   BANK2   BANK3   BANK4   BANK5
  3509 ;;      Params:         4       0       0       0       0       0       0
  3510 ;;      Locals:         2       0       0       0       0       0       0
  3511 ;;      Temps:          0       0       0       0       0       0       0
  3512 ;;      Totals:         6       0       0       0       0       0       0
  3513 ;;Total ram usage:        6 bytes
  3514 ;; Hardware stack levels used: 1
  3515 ;; Hardware stack levels required when called: 1
  3516 ;; This function calls:
  3517 ;;		Nothing
  3518 ;; This function is called by:
  3519 ;;		_display_speed
  3520 ;;		_timeleft
  3521 ;; This function uses a non-reentrant model
  3522 ;;
  3523                           
  3524                           	psect	text22
  3525   000DF4                     __ptext22:
  3526                           	callstack 0
  3527   000DF4                     ___awmod:
  3528                           	callstack 27
  3529   000DF4  0E00               	movlw	0
  3530   000DF6  6E0E               	movwf	___awmod@sign^0,c
  3531   000DF8  BE0A               	btfsc	(___awmod@dividend+1)^0,7,c
  3532   000DFA  EF03  F007         	goto	u1090
  3533   000DFE  EF01  F007         	goto	u1091
  3534   000E02                     u1091:
  3535   000E02  EF09  F007         	goto	l1786
  3536   000E06                     u1090:
  3537   000E06  6C09               	negf	___awmod@dividend^0,c
  3538   000E08  1E0A               	comf	(___awmod@dividend+1)^0,f,c
  3539   000E0A  B0D8               	btfsc	status,0,c
  3540   000E0C  2A0A               	incf	(___awmod@dividend+1)^0,f,c
  3541   000E0E  0E01               	movlw	1
  3542   000E10  6E0E               	movwf	___awmod@sign^0,c
  3543   000E12                     l1786:
  3544   000E12  BE0C               	btfsc	(___awmod@divisor+1)^0,7,c
  3545   000E14  EF10  F007         	goto	u1100
  3546   000E18  EF0E  F007         	goto	u1101
  3547   000E1C                     u1101:
  3548   000E1C  EF14  F007         	goto	l1790
  3549   000E20                     u1100:
  3550   000E20  6C0B               	negf	___awmod@divisor^0,c
  3551   000E22  1E0C               	comf	(___awmod@divisor+1)^0,f,c
  3552   000E24  B0D8               	btfsc	status,0,c
  3553   000E26  2A0C               	incf	(___awmod@divisor+1)^0,f,c
  3554   000E28                     l1790:
  3555   000E28  500B               	movf	___awmod@divisor^0,w,c
  3556   000E2A  100C               	iorwf	(___awmod@divisor+1)^0,w,c
  3557   000E2C  B4D8               	btfsc	status,2,c
  3558   000E2E  EF1B  F007         	goto	u1111
  3559   000E32  EF1D  F007         	goto	u1110
  3560   000E36                     u1111:
  3561   000E36  EF41  F007         	goto	l1806
  3562   000E3A                     u1110:
  3563   000E3A  0E01               	movlw	1
  3564   000E3C  6E0D               	movwf	___awmod@counter^0,c
  3565   000E3E  EF25  F007         	goto	l1796
  3566   000E42                     l1794:
  3567   000E42  90D8               	bcf	status,0,c
  3568   000E44  360B               	rlcf	___awmod@divisor^0,f,c
  3569   000E46  360C               	rlcf	(___awmod@divisor+1)^0,f,c
  3570   000E48  2A0D               	incf	___awmod@counter^0,f,c
  3571   000E4A                     l1796:
  3572   000E4A  AE0C               	btfss	(___awmod@divisor+1)^0,7,c
  3573   000E4C  EF2A  F007         	goto	u1121
  3574   000E50  EF2C  F007         	goto	u1120
  3575   000E54                     u1121:
  3576   000E54  EF21  F007         	goto	l1794
  3577   000E58                     u1120:
  3578   000E58                     l1798:
  3579   000E58  500B               	movf	___awmod@divisor^0,w,c
  3580   000E5A  5C09               	subwf	___awmod@dividend^0,w,c
  3581   000E5C  500C               	movf	(___awmod@divisor+1)^0,w,c
  3582   000E5E  580A               	subwfb	(___awmod@dividend+1)^0,w,c
  3583   000E60  A0D8               	btfss	status,0,c
  3584   000E62  EF35  F007         	goto	u1131
  3585   000E66  EF37  F007         	goto	u1130
  3586   000E6A                     u1131:
  3587   000E6A  EF3B  F007         	goto	l1802
  3588   000E6E                     u1130:
  3589   000E6E  500B               	movf	___awmod@divisor^0,w,c
  3590   000E70  5E09               	subwf	___awmod@dividend^0,f,c
  3591   000E72  500C               	movf	(___awmod@divisor+1)^0,w,c
  3592   000E74  5A0A               	subwfb	(___awmod@dividend+1)^0,f,c
  3593   000E76                     l1802:
  3594   000E76  90D8               	bcf	status,0,c
  3595   000E78  320C               	rrcf	(___awmod@divisor+1)^0,f,c
  3596   000E7A  320B               	rrcf	___awmod@divisor^0,f,c
  3597   000E7C  2E0D               	decfsz	___awmod@counter^0,f,c
  3598   000E7E  EF2C  F007         	goto	l1798
  3599   000E82                     l1806:
  3600   000E82  500E               	movf	___awmod@sign^0,w,c
  3601   000E84  B4D8               	btfsc	status,2,c
  3602   000E86  EF47  F007         	goto	u1141
  3603   000E8A  EF49  F007         	goto	u1140
  3604   000E8E                     u1141:
  3605   000E8E  EF4D  F007         	goto	l1810
  3606   000E92                     u1140:
  3607   000E92  6C09               	negf	___awmod@dividend^0,c
  3608   000E94  1E0A               	comf	(___awmod@dividend+1)^0,f,c
  3609   000E96  B0D8               	btfsc	status,0,c
  3610   000E98  2A0A               	incf	(___awmod@dividend+1)^0,f,c
  3611   000E9A                     l1810:
  3612   000E9A  C009  F009         	movff	___awmod@dividend,?___awmod
  3613   000E9E  C00A  F00A         	movff	___awmod@dividend+1,?___awmod+1
  3614   000EA2  0012               	return		;funcret
  3615   000EA4                     __end_of___awmod:
  3616                           	callstack 0
  3617                           
  3618 ;; *************** function ___xxtofl *****************
  3619 ;; Defined at:
  3620 ;;		line 10 in file "C:\Program Files\Microchip\xc8\v2.41\pic\sources\c99\common\xxtofl.c"
  3621 ;; Parameters:    Size  Location     Type
  3622 ;;  sign            1    wreg     unsigned char 
  3623 ;;  val             4    5[COMRAM] long 
  3624 ;; Auto vars:     Size  Location     Type
  3625 ;;  sign            1   13[COMRAM] unsigned char 
  3626 ;;  arg             4   15[COMRAM] unsigned long 
  3627 ;;  exp             1   14[COMRAM] unsigned char 
  3628 ;; Return value:  Size  Location     Type
  3629 ;;                  4    5[COMRAM] unsigned char 
  3630 ;; Registers used:
  3631 ;;		wreg, status,2, status,0
  3632 ;; Tracked objects:
  3633 ;;		On entry : 0/0
  3634 ;;		On exit  : 0/0
  3635 ;;		Unchanged: 0/0
  3636 ;; Data sizes:     COMRAM   BANK0   BANK1   BANK2   BANK3   BANK4   BANK5
  3637 ;;      Params:         4       0       0       0       0       0       0
  3638 ;;      Locals:         6       0       0       0       0       0       0
  3639 ;;      Temps:          4       0       0       0       0       0       0
  3640 ;;      Totals:        14       0       0       0       0       0       0
  3641 ;;Total ram usage:       14 bytes
  3642 ;; Hardware stack levels used: 1
  3643 ;; Hardware stack levels required when called: 1
  3644 ;; This function calls:
  3645 ;;		Nothing
  3646 ;; This function is called by:
  3647 ;;		_main
  3648 ;; This function uses a non-reentrant model
  3649 ;;
  3650                           
  3651                           	psect	text23
  3652   0006D6                     __ptext23:
  3653                           	callstack 0
  3654   0006D6                     ___xxtofl:
  3655                           	callstack 29
  3656                           
  3657                           ;incstack = 0
  3658                           ;___xxtofl@sign stored from wreg
  3659   0006D6  6E0E               	movwf	___xxtofl@sign^0,c
  3660   0006D8  500E               	movf	___xxtofl@sign^0,w,c
  3661   0006DA  B4D8               	btfsc	status,2,c
  3662   0006DC  EF72  F003         	goto	u1731
  3663   0006E0  EF74  F003         	goto	u1730
  3664   0006E4                     u1731:
  3665   0006E4  EF96  F003         	goto	l986
  3666   0006E8                     u1730:
  3667   0006E8  BE09               	btfsc	(___xxtofl@val+3)^0,7,c
  3668   0006EA  EF7B  F003         	goto	u1740
  3669   0006EE  EF79  F003         	goto	u1741
  3670   0006F2                     u1741:
  3671   0006F2  EF96  F003         	goto	l986
  3672   0006F6                     u1740:
  3673   0006F6  C006  F00A         	movff	___xxtofl@val,??___xxtofl
  3674   0006FA  C007  F00B         	movff	___xxtofl@val+1,??___xxtofl+1
  3675   0006FE  C008  F00C         	movff	___xxtofl@val+2,??___xxtofl+2
  3676   000702  C009  F00D         	movff	___xxtofl@val+3,??___xxtofl+3
  3677   000706  1E0A               	comf	??___xxtofl^0,f,c
  3678   000708  1E0B               	comf	(??___xxtofl+1)^0,f,c
  3679   00070A  1E0C               	comf	(??___xxtofl+2)^0,f,c
  3680   00070C  1E0D               	comf	(??___xxtofl+3)^0,f,c
  3681   00070E  2A0A               	incf	??___xxtofl^0,f,c
  3682   000710  0E00               	movlw	0
  3683   000712  220B               	addwfc	(??___xxtofl+1)^0,f,c
  3684   000714  220C               	addwfc	(??___xxtofl+2)^0,f,c
  3685   000716  220D               	addwfc	(??___xxtofl+3)^0,f,c
  3686   000718  C00A  F010         	movff	??___xxtofl,___xxtofl@arg
  3687   00071C  C00B  F011         	movff	??___xxtofl+1,___xxtofl@arg+1
  3688   000720  C00C  F012         	movff	??___xxtofl+2,___xxtofl@arg+2
  3689   000724  C00D  F013         	movff	??___xxtofl+3,___xxtofl@arg+3
  3690   000728  EF9E  F003         	goto	l2238
  3691   00072C                     l986:
  3692   00072C  C006  F010         	movff	___xxtofl@val,___xxtofl@arg
  3693   000730  C007  F011         	movff	___xxtofl@val+1,___xxtofl@arg+1
  3694   000734  C008  F012         	movff	___xxtofl@val+2,___xxtofl@arg+2
  3695   000738  C009  F013         	movff	___xxtofl@val+3,___xxtofl@arg+3
  3696   00073C                     l2238:
  3697   00073C  5006               	movf	___xxtofl@val^0,w,c
  3698   00073E  1007               	iorwf	(___xxtofl@val+1)^0,w,c
  3699   000740  1008               	iorwf	(___xxtofl@val+2)^0,w,c
  3700   000742  1009               	iorwf	(___xxtofl@val+3)^0,w,c
  3701   000744  A4D8               	btfss	status,2,c
  3702   000746  EFA7  F003         	goto	u1751
  3703   00074A  EFA9  F003         	goto	u1750
  3704   00074E                     u1751:
  3705   00074E  EFB3  F003         	goto	l2244
  3706   000752                     u1750:
  3707   000752  0E00               	movlw	0
  3708   000754  6E06               	movwf	?___xxtofl^0,c
  3709   000756  0E00               	movlw	0
  3710   000758  6E07               	movwf	(?___xxtofl+1)^0,c
  3711   00075A  0E00               	movlw	0
  3712   00075C  6E08               	movwf	(?___xxtofl+2)^0,c
  3713   00075E  0E00               	movlw	0
  3714   000760  6E09               	movwf	(?___xxtofl+3)^0,c
  3715   000762  EF44  F004         	goto	l989
  3716   000766                     l2244:
  3717   000766  0E96               	movlw	150
  3718   000768  6E0F               	movwf	___xxtofl@exp^0,c
  3719   00076A  EFBD  F003         	goto	l2248
  3720   00076E                     l2246:
  3721   00076E  2A0F               	incf	___xxtofl@exp^0,f,c
  3722   000770  90D8               	bcf	status,0,c
  3723   000772  3213               	rrcf	(___xxtofl@arg+3)^0,f,c
  3724   000774  3212               	rrcf	(___xxtofl@arg+2)^0,f,c
  3725   000776  3211               	rrcf	(___xxtofl@arg+1)^0,f,c
  3726   000778  3210               	rrcf	___xxtofl@arg^0,f,c
  3727   00077A                     l2248:
  3728   00077A  0E00               	movlw	0
  3729   00077C  1410               	andwf	___xxtofl@arg^0,w,c
  3730   00077E  6E0A               	movwf	??___xxtofl^0,c
  3731   000780  0E00               	movlw	0
  3732   000782  1411               	andwf	(___xxtofl@arg+1)^0,w,c
  3733   000784  6E0B               	movwf	(??___xxtofl+1)^0,c
  3734   000786  0E00               	movlw	0
  3735   000788  1412               	andwf	(___xxtofl@arg+2)^0,w,c
  3736   00078A  6E0C               	movwf	(??___xxtofl+2)^0,c
  3737   00078C  0EFE               	movlw	254
  3738   00078E  1413               	andwf	(___xxtofl@arg+3)^0,w,c
  3739   000790  6E0D               	movwf	(??___xxtofl+3)^0,c
  3740   000792  500A               	movf	??___xxtofl^0,w,c
  3741   000794  100B               	iorwf	(??___xxtofl+1)^0,w,c
  3742   000796  100C               	iorwf	(??___xxtofl+2)^0,w,c
  3743   000798  100D               	iorwf	(??___xxtofl+3)^0,w,c
  3744   00079A  A4D8               	btfss	status,2,c
  3745   00079C  EFD2  F003         	goto	u1761
  3746   0007A0  EFD4  F003         	goto	u1760
  3747   0007A4                     u1761:
  3748   0007A4  EFB7  F003         	goto	l2246
  3749   0007A8                     u1760:
  3750   0007A8  EFE2  F003         	goto	l993
  3751   0007AC                     l2250:
  3752   0007AC  2A0F               	incf	___xxtofl@exp^0,f,c
  3753   0007AE  0E01               	movlw	1
  3754   0007B0  2610               	addwf	___xxtofl@arg^0,f,c
  3755   0007B2  0E00               	movlw	0
  3756   0007B4  2211               	addwfc	(___xxtofl@arg+1)^0,f,c
  3757   0007B6  2212               	addwfc	(___xxtofl@arg+2)^0,f,c
  3758   0007B8  2213               	addwfc	(___xxtofl@arg+3)^0,f,c
  3759   0007BA  90D8               	bcf	status,0,c
  3760   0007BC  3213               	rrcf	(___xxtofl@arg+3)^0,f,c
  3761   0007BE  3212               	rrcf	(___xxtofl@arg+2)^0,f,c
  3762   0007C0  3211               	rrcf	(___xxtofl@arg+1)^0,f,c
  3763   0007C2  3210               	rrcf	___xxtofl@arg^0,f,c
  3764   0007C4                     l993:
  3765   0007C4  0E00               	movlw	0
  3766   0007C6  1410               	andwf	___xxtofl@arg^0,w,c
  3767   0007C8  6E0A               	movwf	??___xxtofl^0,c
  3768   0007CA  0E00               	movlw	0
  3769   0007CC  1411               	andwf	(___xxtofl@arg+1)^0,w,c
  3770   0007CE  6E0B               	movwf	(??___xxtofl+1)^0,c
  3771   0007D0  0E00               	movlw	0
  3772   0007D2  1412               	andwf	(___xxtofl@arg+2)^0,w,c
  3773   0007D4  6E0C               	movwf	(??___xxtofl+2)^0,c
  3774   0007D6  0EFF               	movlw	255
  3775   0007D8  1413               	andwf	(___xxtofl@arg+3)^0,w,c
  3776   0007DA  6E0D               	movwf	(??___xxtofl+3)^0,c
  3777   0007DC  500A               	movf	??___xxtofl^0,w,c
  3778   0007DE  100B               	iorwf	(??___xxtofl+1)^0,w,c
  3779   0007E0  100C               	iorwf	(??___xxtofl+2)^0,w,c
  3780   0007E2  100D               	iorwf	(??___xxtofl+3)^0,w,c
  3781   0007E4  A4D8               	btfss	status,2,c
  3782   0007E6  EFF7  F003         	goto	u1771
  3783   0007EA  EFF9  F003         	goto	u1770
  3784   0007EE                     u1771:
  3785   0007EE  EFD6  F003         	goto	l2250
  3786   0007F2                     u1770:
  3787   0007F2  EF01  F004         	goto	l2258
  3788   0007F6                     l2256:
  3789   0007F6  060F               	decf	___xxtofl@exp^0,f,c
  3790   0007F8  90D8               	bcf	status,0,c
  3791   0007FA  3610               	rlcf	___xxtofl@arg^0,f,c
  3792   0007FC  3611               	rlcf	(___xxtofl@arg+1)^0,f,c
  3793   0007FE  3612               	rlcf	(___xxtofl@arg+2)^0,f,c
  3794   000800  3613               	rlcf	(___xxtofl@arg+3)^0,f,c
  3795   000802                     l2258:
  3796   000802  BE12               	btfsc	(___xxtofl@arg+2)^0,7,c
  3797   000804  EF06  F004         	goto	u1781
  3798   000808  EF08  F004         	goto	u1780
  3799   00080C                     u1781:
  3800   00080C  EF10  F004         	goto	l1000
  3801   000810                     u1780:
  3802   000810  0E02               	movlw	2
  3803   000812  600F               	cpfslt	___xxtofl@exp^0,c
  3804   000814  EF0E  F004         	goto	u1791
  3805   000818  EF10  F004         	goto	u1790
  3806   00081C                     u1791:
  3807   00081C  EFFB  F003         	goto	l2256
  3808   000820                     u1790:
  3809   000820                     l1000:
  3810   000820  B00F               	btfsc	___xxtofl@exp^0,0,c
  3811   000822  EF15  F004         	goto	u1801
  3812   000826  EF17  F004         	goto	u1800
  3813   00082A                     u1801:
  3814   00082A  EF18  F004         	goto	l2264
  3815   00082E                     u1800:
  3816   00082E  9E12               	bcf	(___xxtofl@arg+2)^0,7,c
  3817   000830                     l2264:
  3818   000830  90D8               	bcf	status,0,c
  3819   000832  320F               	rrcf	___xxtofl@exp^0,f,c
  3820   000834  C00F  F00A         	movff	___xxtofl@exp,??___xxtofl
  3821   000838  6A0B               	clrf	(??___xxtofl+1)^0,c
  3822   00083A  6A0C               	clrf	(??___xxtofl+2)^0,c
  3823   00083C  6A0D               	clrf	(??___xxtofl+3)^0,c
  3824   00083E  C00A  F00D         	movff	??___xxtofl,??___xxtofl+3
  3825   000842  6A0C               	clrf	(??___xxtofl+2)^0,c
  3826   000844  6A0B               	clrf	(??___xxtofl+1)^0,c
  3827   000846  6A0A               	clrf	??___xxtofl^0,c
  3828   000848  500A               	movf	??___xxtofl^0,w,c
  3829   00084A  1210               	iorwf	___xxtofl@arg^0,f,c
  3830   00084C  500B               	movf	(??___xxtofl+1)^0,w,c
  3831   00084E  1211               	iorwf	(___xxtofl@arg+1)^0,f,c
  3832   000850  500C               	movf	(??___xxtofl+2)^0,w,c
  3833   000852  1212               	iorwf	(___xxtofl@arg+2)^0,f,c
  3834   000854  500D               	movf	(??___xxtofl+3)^0,w,c
  3835   000856  1213               	iorwf	(___xxtofl@arg+3)^0,f,c
  3836   000858  500E               	movf	___xxtofl@sign^0,w,c
  3837   00085A  B4D8               	btfsc	status,2,c
  3838   00085C  EF32  F004         	goto	u1811
  3839   000860  EF34  F004         	goto	u1810
  3840   000864                     u1811:
  3841   000864  EF3C  F004         	goto	l2274
  3842   000868                     u1810:
  3843   000868  BE09               	btfsc	(___xxtofl@val+3)^0,7,c
  3844   00086A  EF3B  F004         	goto	u1820
  3845   00086E  EF39  F004         	goto	u1821
  3846   000872                     u1821:
  3847   000872  EF3C  F004         	goto	l2274
  3848   000876                     u1820:
  3849   000876  8E13               	bsf	(___xxtofl@arg+3)^0,7,c
  3850   000878                     l2274:
  3851   000878  C010  F006         	movff	___xxtofl@arg,?___xxtofl
  3852   00087C  C011  F007         	movff	___xxtofl@arg+1,?___xxtofl+1
  3853   000880  C012  F008         	movff	___xxtofl@arg+2,?___xxtofl+2
  3854   000884  C013  F009         	movff	___xxtofl@arg+3,?___xxtofl+3
  3855   000888                     l989:
  3856   000888  0012               	return		;funcret
  3857   00088A                     __end_of___xxtofl:
  3858                           	callstack 0
  3859                           
  3860 ;; *************** function ___fltol *****************
  3861 ;; Defined at:
  3862 ;;		line 43 in file "C:\Program Files\Microchip\xc8\v2.41\pic\sources\c99\common\fltol.c"
  3863 ;; Parameters:    Size  Location     Type
  3864 ;;  f1              4   44[COMRAM] unsigned char 
  3865 ;; Auto vars:     Size  Location     Type
  3866 ;;  exp1            1   53[COMRAM] unsigned char 
  3867 ;;  sign1           1   52[COMRAM] unsigned char 
  3868 ;; Return value:  Size  Location     Type
  3869 ;;                  4   44[COMRAM] long 
  3870 ;; Registers used:
  3871 ;;		wreg, status,2, status,0
  3872 ;; Tracked objects:
  3873 ;;		On entry : 0/0
  3874 ;;		On exit  : 0/0
  3875 ;;		Unchanged: 0/0
  3876 ;; Data sizes:     COMRAM   BANK0   BANK1   BANK2   BANK3   BANK4   BANK5
  3877 ;;      Params:         4       0       0       0       0       0       0
  3878 ;;      Locals:         2       0       0       0       0       0       0
  3879 ;;      Temps:          4       0       0       0       0       0       0
  3880 ;;      Totals:        10       0       0       0       0       0       0
  3881 ;;Total ram usage:       10 bytes
  3882 ;; Hardware stack levels used: 1
  3883 ;; Hardware stack levels required when called: 1
  3884 ;; This function calls:
  3885 ;;		Nothing
  3886 ;; This function is called by:
  3887 ;;		_main
  3888 ;; This function uses a non-reentrant model
  3889 ;;
  3890                           
  3891                           	psect	text24
  3892   0009C0                     __ptext24:
  3893                           	callstack 0
  3894   0009C0                     ___fltol:
  3895                           	callstack 29
  3896   0009C0  342F               	rlcf	(___fltol@f1+2)^0,w,c
  3897   0009C2  3430               	rlcf	(___fltol@f1+3)^0,w,c
  3898   0009C4  6E36               	movwf	___fltol@exp1^0,c
  3899   0009C6  5036               	movf	___fltol@exp1^0,w,c
  3900   0009C8  A4D8               	btfss	status,2,c
  3901   0009CA  EFE9  F004         	goto	u1661
  3902   0009CE  EFEB  F004         	goto	u1660
  3903   0009D2                     u1661:
  3904   0009D2  EFF5  F004         	goto	l2194
  3905   0009D6                     u1660:
  3906   0009D6                     l2190:
  3907   0009D6  0E00               	movlw	0
  3908   0009D8  6E2D               	movwf	?___fltol^0,c
  3909   0009DA  0E00               	movlw	0
  3910   0009DC  6E2E               	movwf	(?___fltol+1)^0,c
  3911   0009DE  0E00               	movlw	0
  3912   0009E0  6E2F               	movwf	(?___fltol+2)^0,c
  3913   0009E2  0E00               	movlw	0
  3914   0009E4  6E30               	movwf	(?___fltol+3)^0,c
  3915   0009E6  EF62  F005         	goto	l628
  3916   0009EA                     l2194:
  3917   0009EA  C02D  F031         	movff	___fltol@f1,??___fltol
  3918   0009EE  C02E  F032         	movff	___fltol@f1+1,??___fltol+1
  3919   0009F2  C02F  F033         	movff	___fltol@f1+2,??___fltol+2
  3920   0009F6  C030  F034         	movff	___fltol@f1+3,??___fltol+3
  3921   0009FA  0E20               	movlw	32
  3922   0009FC  EF05  F005         	goto	u1670
  3923   000A00                     u1675:
  3924   000A00  90D8               	bcf	status,0,c
  3925   000A02  3234               	rrcf	(??___fltol+3)^0,f,c
  3926   000A04  3233               	rrcf	(??___fltol+2)^0,f,c
  3927   000A06  3232               	rrcf	(??___fltol+1)^0,f,c
  3928   000A08  3231               	rrcf	??___fltol^0,f,c
  3929   000A0A                     u1670:
  3930   000A0A  2EE8               	decfsz	wreg,f,c
  3931   000A0C  EF00  F005         	goto	u1675
  3932   000A10  5031               	movf	??___fltol^0,w,c
  3933   000A12  6E35               	movwf	___fltol@sign1^0,c
  3934   000A14  8E2F               	bsf	(___fltol@f1+2)^0,7,c
  3935   000A16  0EFF               	movlw	255
  3936   000A18  162D               	andwf	___fltol@f1^0,f,c
  3937   000A1A  0EFF               	movlw	255
  3938   000A1C  162E               	andwf	(___fltol@f1+1)^0,f,c
  3939   000A1E  0EFF               	movlw	255
  3940   000A20  162F               	andwf	(___fltol@f1+2)^0,f,c
  3941   000A22  0E00               	movlw	0
  3942   000A24  1630               	andwf	(___fltol@f1+3)^0,f,c
  3943   000A26  0E96               	movlw	150
  3944   000A28  5E36               	subwf	___fltol@exp1^0,f,c
  3945   000A2A  BE36               	btfsc	___fltol@exp1^0,7,c
  3946   000A2C  EF1C  F005         	goto	u1680
  3947   000A30  EF1A  F005         	goto	u1681
  3948   000A34                     u1681:
  3949   000A34  EF32  F005         	goto	l2214
  3950   000A38                     u1680:
  3951   000A38  5036               	movf	___fltol@exp1^0,w,c
  3952   000A3A  0A80               	xorlw	128
  3953   000A3C  0F97               	addlw	151
  3954   000A3E  B0D8               	btfsc	status,0,c
  3955   000A40  EF24  F005         	goto	u1691
  3956   000A44  EF26  F005         	goto	u1690
  3957   000A48                     u1691:
  3958   000A48  EF28  F005         	goto	l2210
  3959   000A4C                     u1690:
  3960   000A4C  EFEB  F004         	goto	l2190
  3961   000A50                     l2210:
  3962   000A50  90D8               	bcf	status,0,c
  3963   000A52  3230               	rrcf	(___fltol@f1+3)^0,f,c
  3964   000A54  322F               	rrcf	(___fltol@f1+2)^0,f,c
  3965   000A56  322E               	rrcf	(___fltol@f1+1)^0,f,c
  3966   000A58  322D               	rrcf	___fltol@f1^0,f,c
  3967   000A5A  3E36               	incfsz	___fltol@exp1^0,f,c
  3968   000A5C  EF28  F005         	goto	l2210
  3969   000A60  EF4A  F005         	goto	l2224
  3970   000A64                     l2214:
  3971   000A64  0E1F               	movlw	31
  3972   000A66  6436               	cpfsgt	___fltol@exp1^0,c
  3973   000A68  EF38  F005         	goto	u1701
  3974   000A6C  EF3A  F005         	goto	u1700
  3975   000A70                     u1701:
  3976   000A70  EF42  F005         	goto	l2222
  3977   000A74                     u1700:
  3978   000A74  EFEB  F004         	goto	l2190
  3979   000A78                     l2220:
  3980   000A78  90D8               	bcf	status,0,c
  3981   000A7A  362D               	rlcf	___fltol@f1^0,f,c
  3982   000A7C  362E               	rlcf	(___fltol@f1+1)^0,f,c
  3983   000A7E  362F               	rlcf	(___fltol@f1+2)^0,f,c
  3984   000A80  3630               	rlcf	(___fltol@f1+3)^0,f,c
  3985   000A82  0636               	decf	___fltol@exp1^0,f,c
  3986   000A84                     l2222:
  3987   000A84  5036               	movf	___fltol@exp1^0,w,c
  3988   000A86  A4D8               	btfss	status,2,c
  3989   000A88  EF48  F005         	goto	u1711
  3990   000A8C  EF4A  F005         	goto	u1710
  3991   000A90                     u1711:
  3992   000A90  EF3C  F005         	goto	l2220
  3993   000A94                     u1710:
  3994   000A94                     l2224:
  3995   000A94  5035               	movf	___fltol@sign1^0,w,c
  3996   000A96  B4D8               	btfsc	status,2,c
  3997   000A98  EF50  F005         	goto	u1721
  3998   000A9C  EF52  F005         	goto	u1720
  3999   000AA0                     u1721:
  4000   000AA0  EF5A  F005         	goto	l2228
  4001   000AA4                     u1720:
  4002   000AA4  1E30               	comf	(___fltol@f1+3)^0,f,c
  4003   000AA6  1E2F               	comf	(___fltol@f1+2)^0,f,c
  4004   000AA8  1E2E               	comf	(___fltol@f1+1)^0,f,c
  4005   000AAA  6C2D               	negf	___fltol@f1^0,c
  4006   000AAC  0E00               	movlw	0
  4007   000AAE  222E               	addwfc	(___fltol@f1+1)^0,f,c
  4008   000AB0  222F               	addwfc	(___fltol@f1+2)^0,f,c
  4009   000AB2  2230               	addwfc	(___fltol@f1+3)^0,f,c
  4010   000AB4                     l2228:
  4011   000AB4  C02D  F02D         	movff	___fltol@f1,?___fltol
  4012   000AB8  C02E  F02E         	movff	___fltol@f1+1,?___fltol+1
  4013   000ABC  C02F  F02F         	movff	___fltol@f1+2,?___fltol+2
  4014   000AC0  C030  F030         	movff	___fltol@f1+3,?___fltol+3
  4015   000AC4                     l628:
  4016   000AC4  0012               	return		;funcret
  4017   000AC6                     __end_of___fltol:
  4018                           	callstack 0
  4019                           
  4020 ;; *************** function ___fldiv *****************
  4021 ;; Defined at:
  4022 ;;		line 11 in file "C:\Program Files\Microchip\xc8\v2.41\pic\sources\c99\common\sprcdiv.c"
  4023 ;; Parameters:    Size  Location     Type
  4024 ;;  b               4   19[COMRAM] long 
  4025 ;;  a               4   23[COMRAM] long 
  4026 ;; Auto vars:     Size  Location     Type
  4027 ;;  grs             4   38[COMRAM] unsigned long 
  4028 ;;  rem             4   31[COMRAM] unsigned long 
  4029 ;;  new_exp         2   36[COMRAM] short 
  4030 ;;  aexp            1   43[COMRAM] unsigned char 
  4031 ;;  bexp            1   42[COMRAM] unsigned char 
  4032 ;;  sign            1   35[COMRAM] unsigned char 
  4033 ;; Return value:  Size  Location     Type
  4034 ;;                  4   19[COMRAM] unsigned char 
  4035 ;; Registers used:
  4036 ;;		wreg, status,2, status,0
  4037 ;; Tracked objects:
  4038 ;;		On entry : 0/0
  4039 ;;		On exit  : 0/0
  4040 ;;		Unchanged: 0/0
  4041 ;; Data sizes:     COMRAM   BANK0   BANK1   BANK2   BANK3   BANK4   BANK5
  4042 ;;      Params:         8       0       0       0       0       0       0
  4043 ;;      Locals:        13       0       0       0       0       0       0
  4044 ;;      Temps:          4       0       0       0       0       0       0
  4045 ;;      Totals:        25       0       0       0       0       0       0
  4046 ;;Total ram usage:       25 bytes
  4047 ;; Hardware stack levels used: 1
  4048 ;; Hardware stack levels required when called: 1
  4049 ;; This function calls:
  4050 ;;		Nothing
  4051 ;; This function is called by:
  4052 ;;		_main
  4053 ;; This function uses a non-reentrant model
  4054 ;;
  4055                           
  4056                           	psect	text25
  4057   000012                     __ptext25:
  4058                           	callstack 0
  4059   000012                     ___fldiv:
  4060                           	callstack 29
  4061   000012  5017               	movf	(___fldiv@b+3)^0,w,c
  4062   000014  0B80               	andlw	128
  4063   000016  6E24               	movwf	___fldiv@sign^0,c
  4064   000018  5017               	movf	(___fldiv@b+3)^0,w,c
  4065   00001A  2417               	addwf	(___fldiv@b+3)^0,w,c
  4066   00001C  6E2B               	movwf	___fldiv@bexp^0,c
  4067   00001E  AE16               	btfss	(___fldiv@b+2)^0,7,c
  4068   000020  EF14  F000         	goto	u1431
  4069   000024  EF16  F000         	goto	u1430
  4070   000028                     u1431:
  4071   000028  EF17  F000         	goto	l2056
  4072   00002C                     u1430:
  4073   00002C  802B               	bsf	___fldiv@bexp^0,0,c
  4074   00002E                     l2056:
  4075   00002E  502B               	movf	___fldiv@bexp^0,w,c
  4076   000030  B4D8               	btfsc	status,2,c
  4077   000032  EF1D  F000         	goto	u1441
  4078   000036  EF1F  F000         	goto	u1440
  4079   00003A                     u1441:
  4080   00003A  EF34  F000         	goto	l2066
  4081   00003E                     u1440:
  4082   00003E  282B               	incf	___fldiv@bexp^0,w,c
  4083   000040  A4D8               	btfss	status,2,c
  4084   000042  EF25  F000         	goto	u1451
  4085   000046  EF27  F000         	goto	u1450
  4086   00004A                     u1451:
  4087   00004A  EF2F  F000         	goto	l2062
  4088   00004E                     u1450:
  4089   00004E  0E00               	movlw	0
  4090   000050  6E14               	movwf	___fldiv@b^0,c
  4091   000052  0E00               	movlw	0
  4092   000054  6E15               	movwf	(___fldiv@b+1)^0,c
  4093   000056  0E00               	movlw	0
  4094   000058  6E16               	movwf	(___fldiv@b+2)^0,c
  4095   00005A  0E00               	movlw	0
  4096   00005C  6E17               	movwf	(___fldiv@b+3)^0,c
  4097   00005E                     l2062:
  4098   00005E  8E16               	bsf	(___fldiv@b+2)^0,7,c
  4099   000060  0E00               	movlw	0
  4100   000062  6E17               	movwf	(___fldiv@b+3)^0,c
  4101   000064  EF3C  F000         	goto	l2068
  4102   000068                     l2066:
  4103   000068  0E00               	movlw	0
  4104   00006A  6E14               	movwf	___fldiv@b^0,c
  4105   00006C  0E00               	movlw	0
  4106   00006E  6E15               	movwf	(___fldiv@b+1)^0,c
  4107   000070  0E00               	movlw	0
  4108   000072  6E16               	movwf	(___fldiv@b+2)^0,c
  4109   000074  0E00               	movlw	0
  4110   000076  6E17               	movwf	(___fldiv@b+3)^0,c
  4111   000078                     l2068:
  4112   000078  501B               	movf	(___fldiv@a+3)^0,w,c
  4113   00007A  0B80               	andlw	128
  4114   00007C  1A24               	xorwf	___fldiv@sign^0,f,c
  4115   00007E  501B               	movf	(___fldiv@a+3)^0,w,c
  4116   000080  241B               	addwf	(___fldiv@a+3)^0,w,c
  4117   000082  6E2C               	movwf	___fldiv@aexp^0,c
  4118   000084  AE1A               	btfss	(___fldiv@a+2)^0,7,c
  4119   000086  EF47  F000         	goto	u1461
  4120   00008A  EF49  F000         	goto	u1460
  4121   00008E                     u1461:
  4122   00008E  EF4A  F000         	goto	l2076
  4123   000092                     u1460:
  4124   000092  802C               	bsf	___fldiv@aexp^0,0,c
  4125   000094                     l2076:
  4126   000094  502C               	movf	___fldiv@aexp^0,w,c
  4127   000096  B4D8               	btfsc	status,2,c
  4128   000098  EF50  F000         	goto	u1471
  4129   00009C  EF52  F000         	goto	u1470
  4130   0000A0                     u1471:
  4131   0000A0  EF67  F000         	goto	l2086
  4132   0000A4                     u1470:
  4133   0000A4  282C               	incf	___fldiv@aexp^0,w,c
  4134   0000A6  A4D8               	btfss	status,2,c
  4135   0000A8  EF58  F000         	goto	u1481
  4136   0000AC  EF5A  F000         	goto	u1480
  4137   0000B0                     u1481:
  4138   0000B0  EF62  F000         	goto	l2082
  4139   0000B4                     u1480:
  4140   0000B4  0E00               	movlw	0
  4141   0000B6  6E18               	movwf	___fldiv@a^0,c
  4142   0000B8  0E00               	movlw	0
  4143   0000BA  6E19               	movwf	(___fldiv@a+1)^0,c
  4144   0000BC  0E00               	movlw	0
  4145   0000BE  6E1A               	movwf	(___fldiv@a+2)^0,c
  4146   0000C0  0E00               	movlw	0
  4147   0000C2  6E1B               	movwf	(___fldiv@a+3)^0,c
  4148   0000C4                     l2082:
  4149   0000C4  8E1A               	bsf	(___fldiv@a+2)^0,7,c
  4150   0000C6  0E00               	movlw	0
  4151   0000C8  6E1B               	movwf	(___fldiv@a+3)^0,c
  4152   0000CA  EF6F  F000         	goto	l2088
  4153   0000CE                     l2086:
  4154   0000CE  0E00               	movlw	0
  4155   0000D0  6E18               	movwf	___fldiv@a^0,c
  4156   0000D2  0E00               	movlw	0
  4157   0000D4  6E19               	movwf	(___fldiv@a+1)^0,c
  4158   0000D6  0E00               	movlw	0
  4159   0000D8  6E1A               	movwf	(___fldiv@a+2)^0,c
  4160   0000DA  0E00               	movlw	0
  4161   0000DC  6E1B               	movwf	(___fldiv@a+3)^0,c
  4162   0000DE                     l2088:
  4163   0000DE  5018               	movf	___fldiv@a^0,w,c
  4164   0000E0  1019               	iorwf	(___fldiv@a+1)^0,w,c
  4165   0000E2  101A               	iorwf	(___fldiv@a+2)^0,w,c
  4166   0000E4  101B               	iorwf	(___fldiv@a+3)^0,w,c
  4167   0000E6  A4D8               	btfss	status,2,c
  4168   0000E8  EF78  F000         	goto	u1491
  4169   0000EC  EF7A  F000         	goto	u1490
  4170   0000F0                     u1491:
  4171   0000F0  EF92  F000         	goto	l2100
  4172   0000F4                     u1490:
  4173   0000F4  0E00               	movlw	0
  4174   0000F6  6E14               	movwf	___fldiv@b^0,c
  4175   0000F8  0E00               	movlw	0
  4176   0000FA  6E15               	movwf	(___fldiv@b+1)^0,c
  4177   0000FC  0E00               	movlw	0
  4178   0000FE  6E16               	movwf	(___fldiv@b+2)^0,c
  4179   000100  0E00               	movlw	0
  4180   000102  6E17               	movwf	(___fldiv@b+3)^0,c
  4181   000104  0E80               	movlw	128
  4182   000106  1216               	iorwf	(___fldiv@b+2)^0,f,c
  4183   000108  0E7F               	movlw	127
  4184   00010A  1217               	iorwf	(___fldiv@b+3)^0,f,c
  4185   00010C                     l2094:
  4186   00010C  5024               	movf	___fldiv@sign^0,w,c
  4187   00010E  1217               	iorwf	(___fldiv@b+3)^0,f,c
  4188   000110  C014  F014         	movff	___fldiv@b,?___fldiv
  4189   000114  C015  F015         	movff	___fldiv@b+1,?___fldiv+1
  4190   000118  C016  F016         	movff	___fldiv@b+2,?___fldiv+2
  4191   00011C  C017  F017         	movff	___fldiv@b+3,?___fldiv+3
  4192   000120  EFD5  F001         	goto	l913
  4193   000124                     l2100:
  4194   000124  502B               	movf	___fldiv@bexp^0,w,c
  4195   000126  A4D8               	btfss	status,2,c
  4196   000128  EF98  F000         	goto	u1501
  4197   00012C  EF9A  F000         	goto	u1500
  4198   000130                     u1501:
  4199   000130  EFA4  F000         	goto	l2108
  4200   000134                     u1500:
  4201   000134  0E00               	movlw	0
  4202   000136  6E14               	movwf	?___fldiv^0,c
  4203   000138  0E00               	movlw	0
  4204   00013A  6E15               	movwf	(?___fldiv+1)^0,c
  4205   00013C  0E00               	movlw	0
  4206   00013E  6E16               	movwf	(?___fldiv+2)^0,c
  4207   000140  0E00               	movlw	0
  4208   000142  6E17               	movwf	(?___fldiv+3)^0,c
  4209   000144  EFD5  F001         	goto	l913
  4210   000148                     l2108:
  4211   000148  502C               	movf	___fldiv@aexp^0,w,c
  4212   00014A  C02B  F01C         	movff	___fldiv@bexp,??___fldiv
  4213   00014E  6A1D               	clrf	(??___fldiv+1)^0,c
  4214   000150  5E1C               	subwf	??___fldiv^0,f,c
  4215   000152  0E00               	movlw	0
  4216   000154  5A1D               	subwfb	(??___fldiv+1)^0,f,c
  4217   000156  0E7F               	movlw	127
  4218   000158  241C               	addwf	??___fldiv^0,w,c
  4219   00015A  6E25               	movwf	___fldiv@new_exp^0,c
  4220   00015C  0E00               	movlw	0
  4221   00015E  201D               	addwfc	(??___fldiv+1)^0,w,c
  4222   000160  6E26               	movwf	(___fldiv@new_exp+1)^0,c
  4223   000162  C014  F020         	movff	___fldiv@b,___fldiv@rem
  4224   000166  C015  F021         	movff	___fldiv@b+1,___fldiv@rem+1
  4225   00016A  C016  F022         	movff	___fldiv@b+2,___fldiv@rem+2
  4226   00016E  C017  F023         	movff	___fldiv@b+3,___fldiv@rem+3
  4227   000172  0E00               	movlw	0
  4228   000174  6E14               	movwf	___fldiv@b^0,c
  4229   000176  0E00               	movlw	0
  4230   000178  6E15               	movwf	(___fldiv@b+1)^0,c
  4231   00017A  0E00               	movlw	0
  4232   00017C  6E16               	movwf	(___fldiv@b+2)^0,c
  4233   00017E  0E00               	movlw	0
  4234   000180  6E17               	movwf	(___fldiv@b+3)^0,c
  4235   000182  0E00               	movlw	0
  4236   000184  6E27               	movwf	___fldiv@grs^0,c
  4237   000186  0E00               	movlw	0
  4238   000188  6E28               	movwf	(___fldiv@grs+1)^0,c
  4239   00018A  0E00               	movlw	0
  4240   00018C  6E29               	movwf	(___fldiv@grs+2)^0,c
  4241   00018E  0E00               	movlw	0
  4242   000190  6E2A               	movwf	(___fldiv@grs+3)^0,c
  4243   000192  0E00               	movlw	0
  4244   000194  6E2C               	movwf	___fldiv@aexp^0,c
  4245   000196  EF05  F001         	goto	l915
  4246   00019A                     l2118:
  4247   00019A  502C               	movf	___fldiv@aexp^0,w,c
  4248   00019C  B4D8               	btfsc	status,2,c
  4249   00019E  EFD3  F000         	goto	u1511
  4250   0001A2  EFD5  F000         	goto	u1510
  4251   0001A6                     u1511:
  4252   0001A6  EFEC  F000         	goto	l2126
  4253   0001AA                     u1510:
  4254   0001AA  90D8               	bcf	status,0,c
  4255   0001AC  3620               	rlcf	___fldiv@rem^0,f,c
  4256   0001AE  3621               	rlcf	(___fldiv@rem+1)^0,f,c
  4257   0001B0  3622               	rlcf	(___fldiv@rem+2)^0,f,c
  4258   0001B2  3623               	rlcf	(___fldiv@rem+3)^0,f,c
  4259   0001B4  90D8               	bcf	status,0,c
  4260   0001B6  3614               	rlcf	___fldiv@b^0,f,c
  4261   0001B8  3615               	rlcf	(___fldiv@b+1)^0,f,c
  4262   0001BA  3616               	rlcf	(___fldiv@b+2)^0,f,c
  4263   0001BC  3617               	rlcf	(___fldiv@b+3)^0,f,c
  4264   0001BE  AE2A               	btfss	(___fldiv@grs+3)^0,7,c
  4265   0001C0  EFE4  F000         	goto	u1521
  4266   0001C4  EFE6  F000         	goto	u1520
  4267   0001C8                     u1521:
  4268   0001C8  EFE7  F000         	goto	l918
  4269   0001CC                     u1520:
  4270   0001CC  8014               	bsf	___fldiv@b^0,0,c
  4271   0001CE                     l918:
  4272   0001CE  90D8               	bcf	status,0,c
  4273   0001D0  3627               	rlcf	___fldiv@grs^0,f,c
  4274   0001D2  3628               	rlcf	(___fldiv@grs+1)^0,f,c
  4275   0001D4  3629               	rlcf	(___fldiv@grs+2)^0,f,c
  4276   0001D6  362A               	rlcf	(___fldiv@grs+3)^0,f,c
  4277   0001D8                     l2126:
  4278   0001D8  5018               	movf	___fldiv@a^0,w,c
  4279   0001DA  5C20               	subwf	___fldiv@rem^0,w,c
  4280   0001DC  5019               	movf	(___fldiv@a+1)^0,w,c
  4281   0001DE  5821               	subwfb	(___fldiv@rem+1)^0,w,c
  4282   0001E0  501A               	movf	(___fldiv@a+2)^0,w,c
  4283   0001E2  5822               	subwfb	(___fldiv@rem+2)^0,w,c
  4284   0001E4  501B               	movf	(___fldiv@a+3)^0,w,c
  4285   0001E6  5823               	subwfb	(___fldiv@rem+3)^0,w,c
  4286   0001E8  A0D8               	btfss	status,0,c
  4287   0001EA  EFF9  F000         	goto	u1531
  4288   0001EE  EFFB  F000         	goto	u1530
  4289   0001F2                     u1531:
  4290   0001F2  EF04  F001         	goto	l2132
  4291   0001F6                     u1530:
  4292   0001F6  8C2A               	bsf	(___fldiv@grs+3)^0,6,c
  4293   0001F8  5018               	movf	___fldiv@a^0,w,c
  4294   0001FA  5E20               	subwf	___fldiv@rem^0,f,c
  4295   0001FC  5019               	movf	(___fldiv@a+1)^0,w,c
  4296   0001FE  5A21               	subwfb	(___fldiv@rem+1)^0,f,c
  4297   000200  501A               	movf	(___fldiv@a+2)^0,w,c
  4298   000202  5A22               	subwfb	(___fldiv@rem+2)^0,f,c
  4299   000204  501B               	movf	(___fldiv@a+3)^0,w,c
  4300   000206  5A23               	subwfb	(___fldiv@rem+3)^0,f,c
  4301   000208                     l2132:
  4302   000208  2A2C               	incf	___fldiv@aexp^0,f,c
  4303   00020A                     l915:
  4304   00020A  0E19               	movlw	25
  4305   00020C  642C               	cpfsgt	___fldiv@aexp^0,c
  4306   00020E  EF0B  F001         	goto	u1541
  4307   000212  EF0D  F001         	goto	u1540
  4308   000216                     u1541:
  4309   000216  EFCD  F000         	goto	l2118
  4310   00021A                     u1540:
  4311   00021A  5020               	movf	___fldiv@rem^0,w,c
  4312   00021C  1021               	iorwf	(___fldiv@rem+1)^0,w,c
  4313   00021E  1022               	iorwf	(___fldiv@rem+2)^0,w,c
  4314   000220  1023               	iorwf	(___fldiv@rem+3)^0,w,c
  4315   000222  B4D8               	btfsc	status,2,c
  4316   000224  EF16  F001         	goto	u1551
  4317   000228  EF18  F001         	goto	u1550
  4318   00022C                     u1551:
  4319   00022C  EF30  F001         	goto	l2144
  4320   000230                     u1550:
  4321   000230  8027               	bsf	___fldiv@grs^0,0,c
  4322   000232  EF30  F001         	goto	l2144
  4323   000236                     l2138:
  4324   000236  90D8               	bcf	status,0,c
  4325   000238  3614               	rlcf	___fldiv@b^0,f,c
  4326   00023A  3615               	rlcf	(___fldiv@b+1)^0,f,c
  4327   00023C  3616               	rlcf	(___fldiv@b+2)^0,f,c
  4328   00023E  3617               	rlcf	(___fldiv@b+3)^0,f,c
  4329   000240  AE2A               	btfss	(___fldiv@grs+3)^0,7,c
  4330   000242  EF25  F001         	goto	u1561
  4331   000246  EF27  F001         	goto	u1560
  4332   00024A                     u1561:
  4333   00024A  EF28  F001         	goto	l924
  4334   00024E                     u1560:
  4335   00024E  8014               	bsf	___fldiv@b^0,0,c
  4336   000250                     l924:
  4337   000250  90D8               	bcf	status,0,c
  4338   000252  3627               	rlcf	___fldiv@grs^0,f,c
  4339   000254  3628               	rlcf	(___fldiv@grs+1)^0,f,c
  4340   000256  3629               	rlcf	(___fldiv@grs+2)^0,f,c
  4341   000258  362A               	rlcf	(___fldiv@grs+3)^0,f,c
  4342   00025A  0625               	decf	___fldiv@new_exp^0,f,c
  4343   00025C  A0D8               	btfss	status,0,c
  4344   00025E  0626               	decf	(___fldiv@new_exp+1)^0,f,c
  4345   000260                     l2144:
  4346   000260  AE16               	btfss	(___fldiv@b+2)^0,7,c
  4347   000262  EF35  F001         	goto	u1571
  4348   000266  EF37  F001         	goto	u1570
  4349   00026A                     u1571:
  4350   00026A  EF1B  F001         	goto	l2138
  4351   00026E                     u1570:
  4352   00026E  0E00               	movlw	0
  4353   000270  6E2C               	movwf	___fldiv@aexp^0,c
  4354   000272  AE2A               	btfss	(___fldiv@grs+3)^0,7,c
  4355   000274  EF3E  F001         	goto	u1581
  4356   000278  EF40  F001         	goto	u1580
  4357   00027C                     u1581:
  4358   00027C  EF64  F001         	goto	l926
  4359   000280                     u1580:
  4360   000280  0EFF               	movlw	255
  4361   000282  1427               	andwf	___fldiv@grs^0,w,c
  4362   000284  6E1C               	movwf	??___fldiv^0,c
  4363   000286  0EFF               	movlw	255
  4364   000288  1428               	andwf	(___fldiv@grs+1)^0,w,c
  4365   00028A  6E1D               	movwf	(??___fldiv+1)^0,c
  4366   00028C  0EFF               	movlw	255
  4367   00028E  1429               	andwf	(___fldiv@grs+2)^0,w,c
  4368   000290  6E1E               	movwf	(??___fldiv+2)^0,c
  4369   000292  0E7F               	movlw	127
  4370   000294  142A               	andwf	(___fldiv@grs+3)^0,w,c
  4371   000296  6E1F               	movwf	(??___fldiv+3)^0,c
  4372   000298  501C               	movf	??___fldiv^0,w,c
  4373   00029A  101D               	iorwf	(??___fldiv+1)^0,w,c
  4374   00029C  101E               	iorwf	(??___fldiv+2)^0,w,c
  4375   00029E  101F               	iorwf	(??___fldiv+3)^0,w,c
  4376   0002A0  B4D8               	btfsc	status,2,c
  4377   0002A2  EF55  F001         	goto	u1591
  4378   0002A6  EF57  F001         	goto	u1590
  4379   0002AA                     u1591:
  4380   0002AA  EF5B  F001         	goto	l927
  4381   0002AE                     u1590:
  4382   0002AE                     l2152:
  4383   0002AE  0E01               	movlw	1
  4384   0002B0  6E2C               	movwf	___fldiv@aexp^0,c
  4385   0002B2  EF64  F001         	goto	l926
  4386   0002B6                     l927:
  4387   0002B6  A014               	btfss	___fldiv@b^0,0,c
  4388   0002B8  EF60  F001         	goto	u1601
  4389   0002BC  EF62  F001         	goto	u1600
  4390   0002C0                     u1601:
  4391   0002C0  EF64  F001         	goto	l926
  4392   0002C4                     u1600:
  4393   0002C4  EF57  F001         	goto	l2152
  4394   0002C8                     l926:
  4395   0002C8  502C               	movf	___fldiv@aexp^0,w,c
  4396   0002CA  B4D8               	btfsc	status,2,c
  4397   0002CC  EF6A  F001         	goto	u1611
  4398   0002D0  EF6C  F001         	goto	u1610
  4399   0002D4                     u1611:
  4400   0002D4  EF90  F001         	goto	l2164
  4401   0002D8                     u1610:
  4402   0002D8  0E01               	movlw	1
  4403   0002DA  2614               	addwf	___fldiv@b^0,f,c
  4404   0002DC  0E00               	movlw	0
  4405   0002DE  2215               	addwfc	(___fldiv@b+1)^0,f,c
  4406   0002E0  2216               	addwfc	(___fldiv@b+2)^0,f,c
  4407   0002E2  2217               	addwfc	(___fldiv@b+3)^0,f,c
  4408   0002E4  A017               	btfss	(___fldiv@b+3)^0,0,c
  4409   0002E6  EF77  F001         	goto	u1621
  4410   0002EA  EF79  F001         	goto	u1620
  4411   0002EE                     u1621:
  4412   0002EE  EF90  F001         	goto	l2164
  4413   0002F2                     u1620:
  4414   0002F2  C014  F01C         	movff	___fldiv@b,??___fldiv
  4415   0002F6  C015  F01D         	movff	___fldiv@b+1,??___fldiv+1
  4416   0002FA  C016  F01E         	movff	___fldiv@b+2,??___fldiv+2
  4417   0002FE  C017  F01F         	movff	___fldiv@b+3,??___fldiv+3
  4418   000302  341F               	rlcf	(??___fldiv+3)^0,w,c
  4419   000304  321F               	rrcf	(??___fldiv+3)^0,f,c
  4420   000306  321E               	rrcf	(??___fldiv+2)^0,f,c
  4421   000308  321D               	rrcf	(??___fldiv+1)^0,f,c
  4422   00030A  321C               	rrcf	??___fldiv^0,f,c
  4423   00030C  C01C  F014         	movff	??___fldiv,___fldiv@b
  4424   000310  C01D  F015         	movff	??___fldiv+1,___fldiv@b+1
  4425   000314  C01E  F016         	movff	??___fldiv+2,___fldiv@b+2
  4426   000318  C01F  F017         	movff	??___fldiv+3,___fldiv@b+3
  4427   00031C  4A25               	infsnz	___fldiv@new_exp^0,f,c
  4428   00031E  2A26               	incf	(___fldiv@new_exp+1)^0,f,c
  4429   000320                     l2164:
  4430   000320  BE26               	btfsc	(___fldiv@new_exp+1)^0,7,c
  4431   000322  EF9B  F001         	goto	u1631
  4432   000326  5026               	movf	(___fldiv@new_exp+1)^0,w,c
  4433   000328  E108               	bnz	u1630
  4434   00032A  2825               	incf	___fldiv@new_exp^0,w,c
  4435   00032C  A0D8               	btfss	status,0,c
  4436   00032E  EF9B  F001         	goto	u1631
  4437   000332  EF9D  F001         	goto	u1630
  4438   000336                     u1631:
  4439   000336  EFA8  F001         	goto	l2168
  4440   00033A                     u1630:
  4441   00033A  0E00               	movlw	0
  4442   00033C  6E26               	movwf	(___fldiv@new_exp+1)^0,c
  4443   00033E  6825               	setf	___fldiv@new_exp^0,c
  4444   000340  0E00               	movlw	0
  4445   000342  6E14               	movwf	___fldiv@b^0,c
  4446   000344  0E00               	movlw	0
  4447   000346  6E15               	movwf	(___fldiv@b+1)^0,c
  4448   000348  0E00               	movlw	0
  4449   00034A  6E16               	movwf	(___fldiv@b+2)^0,c
  4450   00034C  0E00               	movlw	0
  4451   00034E  6E17               	movwf	(___fldiv@b+3)^0,c
  4452   000350                     l2168:
  4453   000350  BE26               	btfsc	(___fldiv@new_exp+1)^0,7,c
  4454   000352  EFB5  F001         	goto	u1640
  4455   000356  5026               	movf	(___fldiv@new_exp+1)^0,w,c
  4456   000358  E106               	bnz	u1641
  4457   00035A  0425               	decf	___fldiv@new_exp^0,w,c
  4458   00035C  B0D8               	btfsc	status,0,c
  4459   00035E  EFB3  F001         	goto	u1641
  4460   000362  EFB5  F001         	goto	u1640
  4461   000366                     u1641:
  4462   000366  EFC3  F001         	goto	l2172
  4463   00036A                     u1640:
  4464   00036A  0E00               	movlw	0
  4465   00036C  6E26               	movwf	(___fldiv@new_exp+1)^0,c
  4466   00036E  0E00               	movlw	0
  4467   000370  6E25               	movwf	___fldiv@new_exp^0,c
  4468   000372  0E00               	movlw	0
  4469   000374  6E14               	movwf	___fldiv@b^0,c
  4470   000376  0E00               	movlw	0
  4471   000378  6E15               	movwf	(___fldiv@b+1)^0,c
  4472   00037A  0E00               	movlw	0
  4473   00037C  6E16               	movwf	(___fldiv@b+2)^0,c
  4474   00037E  0E00               	movlw	0
  4475   000380  6E17               	movwf	(___fldiv@b+3)^0,c
  4476   000382  0E00               	movlw	0
  4477   000384  6E24               	movwf	___fldiv@sign^0,c
  4478   000386                     l2172:
  4479   000386  C025  F02B         	movff	___fldiv@new_exp,___fldiv@bexp
  4480   00038A  A02B               	btfss	___fldiv@bexp^0,0,c
  4481   00038C  EFCA  F001         	goto	u1651
  4482   000390  EFCC  F001         	goto	u1650
  4483   000394                     u1651:
  4484   000394  EFCF  F001         	goto	l2178
  4485   000398                     u1650:
  4486   000398  8E16               	bsf	(___fldiv@b+2)^0,7,c
  4487   00039A  EFD0  F001         	goto	l2180
  4488   00039E                     l2178:
  4489   00039E  9E16               	bcf	(___fldiv@b+2)^0,7,c
  4490   0003A0                     l2180:
  4491   0003A0  90D8               	bcf	status,0,c
  4492   0003A2  302B               	rrcf	___fldiv@bexp^0,w,c
  4493   0003A4  6E17               	movwf	(___fldiv@b+3)^0,c
  4494   0003A6  EF86  F000         	goto	l2094
  4495   0003AA                     l913:
  4496   0003AA  0012               	return		;funcret
  4497   0003AC                     __end_of___fldiv:
  4498                           	callstack 0
  4499                           
  4500 ;; *************** function _isr *****************
  4501 ;; Defined at:
  4502 ;;		line 3 in file "isr.c"
  4503 ;; Parameters:    Size  Location     Type
  4504 ;;		None
  4505 ;; Auto vars:     Size  Location     Type
  4506 ;;		None
  4507 ;; Return value:  Size  Location     Type
  4508 ;;                  1    wreg      void 
  4509 ;; Registers used:
  4510 ;;		wreg, status,2, status,0
  4511 ;; Tracked objects:
  4512 ;;		On entry : 0/0
  4513 ;;		On exit  : 0/0
  4514 ;;		Unchanged: 0/0
  4515 ;; Data sizes:     COMRAM   BANK0   BANK1   BANK2   BANK3   BANK4   BANK5
  4516 ;;      Params:         0       0       0       0       0       0       0
  4517 ;;      Locals:         0       0       0       0       0       0       0
  4518 ;;      Temps:          0       0       0       0       0       0       0
  4519 ;;      Totals:         0       0       0       0       0       0       0
  4520 ;;Total ram usage:        0 bytes
  4521 ;; Hardware stack levels used: 1
  4522 ;; This function calls:
  4523 ;;		Nothing
  4524 ;; This function is called by:
  4525 ;;		Interrupt level 2
  4526 ;; This function uses a non-reentrant model
  4527 ;;
  4528                           
  4529                           	psect	intcode
  4530   000008                     __pintcode:
  4531                           	callstack 0
  4532   000008                     _isr:
  4533                           	callstack 26
  4534                           
  4535                           ;incstack = 0
  4536   000008  825A               	bsf	int$flags,1,c	;set compiler interrupt flag (level 2)
  4537   00000A  ED99  F008         	call	int_func,f	;refresh shadow registers
  4538                           
  4539                           	psect	intcode_body
  4540   001132                     __pintcode_body:
  4541                           	callstack 26
  4542   001132                     int_func:
  4543                           	callstack 26
  4544   001132  0006               	pop		; remove dummy address from shadow register refresh
  4545   001134                     
  4546                           ;isr.c: 5:     static unsigned int count = 0;;isr.c: 6:     if (TMR0IF == 1)
  4547   001134  A4F2               	btfss	4082,2,c	;volatile
  4548   001136  EF9F  F008         	goto	i2u186_41
  4549   00113A  EFA1  F008         	goto	i2u186_40
  4550   00113E                     i2u186_41:
  4551   00113E  EFBD  F008         	goto	i2l210
  4552   001142                     i2u186_40:
  4553   001142                     
  4554                           ;isr.c: 7:     {;isr.c: 8:         TMR0 = TMR0 + 8;
  4555   001142  0E08               	movlw	8
  4556   001144  24D6               	addwf	214,w,c	;volatile
  4557   001146  6ED6               	movwf	214,c	;volatile
  4558   001148  0E00               	movlw	0
  4559   00114A  20D7               	addwfc	215,w,c	;volatile
  4560   00114C  6ED7               	movwf	215,c	;volatile
  4561                           
  4562                           ;isr.c: 9:         if (++count == 20000)
  4563   00114E  4A4B               	infsnz	isr@count^0,f,c
  4564   001150  2A4C               	incf	(isr@count+1)^0,f,c
  4565   001152  0E20               	movlw	32
  4566   001154  184B               	xorwf	isr@count^0,w,c
  4567   001156  E107               	bnz	i2u187_41
  4568   001158  0E4E               	movlw	78
  4569   00115A  184C               	xorwf	(isr@count+1)^0,w,c
  4570   00115C  A4D8               	btfss	status,2,c
  4571   00115E  EFB3  F008         	goto	i2u187_41
  4572   001162  EFB5  F008         	goto	i2u187_40
  4573   001166                     i2u187_41:
  4574   001166  EFBC  F008         	goto	i2l2314
  4575   00116A                     i2u187_40:
  4576   00116A                     
  4577                           ;isr.c: 10:         {;isr.c: 11:             count=0;
  4578   00116A  0E00               	movlw	0
  4579   00116C  6E4C               	movwf	(isr@count+1)^0,c
  4580   00116E  0E00               	movlw	0
  4581   001170  6E4B               	movwf	isr@count^0,c
  4582   001172                     
  4583                           ;isr.c: 12:             sec--;
  4584   001172  0655               	decf	_sec^0,f,c
  4585   001174  A0D8               	btfss	status,0,c
  4586   001176  0656               	decf	(_sec+1)^0,f,c
  4587   001178                     i2l2314:
  4588                           
  4589                           ;isr.c: 15:         TMR0IF = 0;
  4590   001178  94F2               	bcf	4082,2,c	;volatile
  4591   00117A                     i2l210:
  4592   00117A  925A               	bcf	int$flags,1,c	;clear compiler interrupt flag (level 2)
  4593   00117C  0011               	retfie		f
  4594   00117E                     __end_of_isr:
  4595                           	callstack 0
  4596                           
  4597                           	psect	rparam
  4598   000000                     
  4599                           	psect	temp
  4600   00005A                     btemp:
  4601                           	callstack 0
  4602   00005A                     	ds	1
  4603   000000                     int$flags	set	btemp
  4604   000000                     wtemp8	set	btemp+1
  4605   000000                     ttemp5	set	btemp+1
  4606   000000                     ttemp6	set	btemp+4
  4607   000000                     ttemp7	set	btemp+8
  4608                           
  4609                           	psect	config
  4610                           
  4611                           ; Padding undefined space
  4612   300000                     	org	3145728
  4613   300000  FF                 	db	255
  4614                           
  4615                           ;Config register CONFIG1H @ 0x300001
  4616                           ;	Oscillator Selection bits
  4617                           ;	OSC = RCIO, External RC oscillator, port function on RA6
  4618                           ;	Fail-Safe Clock Monitor Enable bit
  4619                           ;	FCMEN = OFF, Fail-Safe Clock Monitor disabled
  4620                           ;	Internal/External Oscillator Switchover bit
  4621                           ;	IESO = OFF, Oscillator Switchover mode disabled
  4622   300001                     	org	3145729
  4623   300001  07                 	db	7
  4624                           
  4625                           ;Config register CONFIG2L @ 0x300002
  4626                           ;	Power-up Timer Enable bit
  4627                           ;	PWRT = OFF, PWRT disabled
  4628                           ;	Brown-out Reset Enable bits
  4629                           ;	BOREN = BOHW, Brown-out Reset enabled in hardware only (SBOREN is disabled)
  4630                           ;	Brown-out Reset Voltage bits
  4631                           ;	BORV = 3, VBOR set to 2.1V
  4632   300002                     	org	3145730
  4633   300002  1F                 	db	31
  4634                           
  4635                           ;Config register CONFIG2H @ 0x300003
  4636                           ;	Watchdog Timer Enable bit
  4637                           ;	WDT = ON, WDT enabled
  4638                           ;	Watchdog Timer Postscale Select bits
  4639                           ;	WDTPS = 32768, 1:32768
  4640   300003                     	org	3145731
  4641   300003  1F                 	db	31
  4642                           
  4643                           ; Padding undefined space
  4644   300004                     	org	3145732
  4645   300004  FF                 	db	255
  4646                           
  4647                           ;Config register CONFIG3H @ 0x300005
  4648                           ;	PORTB A/D Enable bit
  4649                           ;	PBADEN = ON, PORTB<4:0> pins are configured as analog input channels on Reset
  4650                           ;	Low-Power Timer 1 Oscillator Enable bit
  4651                           ;	LPT1OSC = OFF, Timer1 configured for higher power operation
  4652                           ;	MCLR Pin Enable bit
  4653                           ;	MCLRE = ON, MCLR pin enabled; RE3 input pin disabled
  4654   300005                     	org	3145733
  4655   300005  82                 	db	130
  4656                           
  4657                           ;Config register CONFIG4L @ 0x300006
  4658                           ;	Stack Full/Underflow Reset Enable bit
  4659                           ;	STVREN = ON, Stack full/underflow will cause Reset
  4660                           ;	Single-Supply ICSP Enable bit
  4661                           ;	LVP = ON, Single-Supply ICSP enabled
  4662                           ;	Boot Block Size Select bit
  4663                           ;	BBSIZ = 1024, 1K words (2K bytes) boot block
  4664                           ;	Extended Instruction Set Enable bit
  4665                           ;	XINST = OFF, Instruction set extension and Indexed Addressing mode disabled (Legacy mo
      +                          de)
  4666                           ;	Background Debugger Enable bit
  4667                           ;	DEBUG = 0x1, unprogrammed default
  4668   300006                     	org	3145734
  4669   300006  85                 	db	133
  4670                           
  4671                           ; Padding undefined space
  4672   300007                     	org	3145735
  4673   300007  FF                 	db	255
  4674                           
  4675                           ;Config register CONFIG5L @ 0x300008
  4676                           ;	Code Protection bit
  4677                           ;	CP0 = OFF, Block 0 (000800-001FFFh) not code-protected
  4678                           ;	Code Protection bit
  4679                           ;	CP1 = OFF, Block 1 (002000-003FFFh) not code-protected
  4680                           ;	Code Protection bit
  4681                           ;	CP2 = OFF, Block 2 (004000-005FFFh) not code-protected
  4682                           ;	Code Protection bit
  4683                           ;	CP3 = OFF, Block 3 (006000-007FFFh) not code-protected
  4684   300008                     	org	3145736
  4685   300008  0F                 	db	15
  4686                           
  4687                           ;Config register CONFIG5H @ 0x300009
  4688                           ;	Boot Block Code Protection bit
  4689                           ;	CPB = OFF, Boot block (000000-0007FFh) not code-protected
  4690                           ;	Data EEPROM Code Protection bit
  4691                           ;	CPD = OFF, Data EEPROM not code-protected
  4692   300009                     	org	3145737
  4693   300009  C0                 	db	192
  4694                           
  4695                           ;Config register CONFIG6L @ 0x30000A
  4696                           ;	Write Protection bit
  4697                           ;	WRT0 = OFF, Block 0 (000800-001FFFh) not write-protected
  4698                           ;	Write Protection bit
  4699                           ;	WRT1 = OFF, Block 1 (002000-003FFFh) not write-protected
  4700                           ;	Write Protection bit
  4701                           ;	WRT2 = OFF, Block 2 (004000-005FFFh) not write-protected
  4702                           ;	Write Protection bit
  4703                           ;	WRT3 = OFF, Block 3 (006000-007FFFh) not write-protected
  4704   30000A                     	org	3145738
  4705   30000A  0F                 	db	15
  4706                           
  4707                           ;Config register CONFIG6H @ 0x30000B
  4708                           ;	Configuration Register Write Protection bit
  4709                           ;	WRTC = OFF, Configuration registers (300000-3000FFh) not write-protected
  4710                           ;	Boot Block Write Protection bit
  4711                           ;	WRTB = OFF, Boot block (000000-0007FFh) not write-protected
  4712                           ;	Data EEPROM Write Protection bit
  4713                           ;	WRTD = OFF, Data EEPROM not write-protected
  4714   30000B                     	org	3145739
  4715   30000B  E0                 	db	224
  4716                           
  4717                           ;Config register CONFIG7L @ 0x30000C
  4718                           ;	Table Read Protection bit
  4719                           ;	EBTR0 = OFF, Block 0 (000800-001FFFh) not protected from table reads executed in other
      +                           blocks
  4720                           ;	Table Read Protection bit
  4721                           ;	EBTR1 = OFF, Block 1 (002000-003FFFh) not protected from table reads executed in other
      +                           blocks
  4722                           ;	Table Read Protection bit
  4723                           ;	EBTR2 = OFF, Block 2 (004000-005FFFh) not protected from table reads executed in other
      +                           blocks
  4724                           ;	Table Read Protection bit
  4725                           ;	EBTR3 = OFF, Block 3 (006000-007FFFh) not protected from table reads executed in other
      +                           blocks
  4726   30000C                     	org	3145740
  4727   30000C  0F                 	db	15
  4728                           
  4729                           ;Config register CONFIG7H @ 0x30000D
  4730                           ;	Boot Block Table Read Protection bit
  4731                           ;	EBTRB = OFF, Boot block (000000-0007FFh) not protected from table reads executed in ot
      +                          her blocks
  4732   30000D                     	org	3145741
  4733   30000D  40                 	db	64
  4734                           tosu	equ	0xFFF
  4735                           tosh	equ	0xFFE
  4736                           tosl	equ	0xFFD
  4737                           stkptr	equ	0xFFC
  4738                           pclatu	equ	0xFFB
  4739                           pclath	equ	0xFFA
  4740                           pcl	equ	0xFF9
  4741                           tblptru	equ	0xFF8
  4742                           tblptrh	equ	0xFF7
  4743                           tblptrl	equ	0xFF6
  4744                           tablat	equ	0xFF5
  4745                           prodh	equ	0xFF4
  4746                           prodl	equ	0xFF3
  4747                           indf0	equ	0xFEF
  4748                           postinc0	equ	0xFEE
  4749                           postdec0	equ	0xFED
  4750                           preinc0	equ	0xFEC
  4751                           plusw0	equ	0xFEB
  4752                           fsr0h	equ	0xFEA
  4753                           fsr0l	equ	0xFE9
  4754                           wreg	equ	0xFE8
  4755                           indf1	equ	0xFE7
  4756                           postinc1	equ	0xFE6
  4757                           postdec1	equ	0xFE5
  4758                           preinc1	equ	0xFE4
  4759                           plusw1	equ	0xFE3
  4760                           fsr1h	equ	0xFE2
  4761                           fsr1l	equ	0xFE1
  4762                           bsr	equ	0xFE0
  4763                           indf2	equ	0xFDF
  4764                           postinc2	equ	0xFDE
  4765                           postdec2	equ	0xFDD
  4766                           preinc2	equ	0xFDC
  4767                           plusw2	equ	0xFDB
  4768                           fsr2h	equ	0xFDA
  4769                           fsr2l	equ	0xFD9
  4770                           status	equ	0xFD8

Data Sizes:
    Strings     270
    Constant    0
    Data        42
    BSS         27
    Persistent  0
    Stack       0

Auto Spaces:
    Space          Size  Autos    Used
    COMRAM           94     60      89
    BANK0           160      0      40
    BANK1           256      0       0
    BANK2           256      0       0
    BANK3           256      0       0
    BANK4           256      0       0
    BANK5           256      0       0

Pointer List with Targets:

    scrolling	PTR unsigned char [5] size(2) Largest target is 20
		 -> STR_25(CODE[20]), STR_24(CODE[15]), STR_23(CODE[16]), STR_22(CODE[19]), 
		 -> STR_21(CODE[18]), 

    mystrcmp@s2	PTR unsigned char  size(2) Largest target is 5
		 -> pass(BANK0[5]), 

    mystrcmp@s1	PTR unsigned char  size(2) Largest target is 5
		 -> uckey(BANK0[5]), 

    clcd_print@data	PTR const unsigned char  size(2) Largest target is 17
		 -> STR_27(CODE[17]), STR_26(CODE[17]), STR_20(CODE[5]), STR_19(CODE[9]), 
		 -> STR_18(CODE[15]), STR_17(CODE[16]), STR_16(CODE[15]), STR_15(CODE[17]), 
		 -> STR_14(CODE[17]), STR_13(CODE[17]), STR_12(CODE[17]), STR_11(CODE[17]), 
		 -> STR_10(CODE[10]), STR_9(CODE[17]), 

    signature	PTR unsigned char [8] size(2) Largest target is 3
		 -> STR_8(CODE[3]), STR_7(CODE[3]), STR_6(CODE[3]), STR_5(CODE[3]), 
		 -> STR_4(CODE[3]), STR_3(CODE[3]), STR_2(CODE[3]), STR_1(CODE[3]), 


Critical Paths under _main in COMRAM

    _main->___fltol
    _scrolllog->_clcd_print
    _logscreen->_clcd_putch
    _timeleft->_clcd_putch
    _init_config->_init_clcd
    _init_clcd->_clcd_write
    _display_dashboard->_gear_monitor
    _gear_monitor->_clcd_putch
    _display_time->_clcd_print
    _clcd_print->_clcd_write
    _display_speed->_clcd_putch
    _clcd_putch->___awmod
    ___awmod->___awdiv
    ___xxtofl->_read_adc
    ___fltol->___fldiv
    ___fldiv->___xxtofl

Critical Paths under _isr in COMRAM

    None.

Critical Paths under _main in BANK0

    None.

Critical Paths under _isr in BANK0

    None.

Critical Paths under _main in BANK1

    None.

Critical Paths under _isr in BANK1

    None.

Critical Paths under _main in BANK2

    None.

Critical Paths under _isr in BANK2

    None.

Critical Paths under _main in BANK3

    None.

Critical Paths under _isr in BANK3

    None.

Critical Paths under _main in BANK4

    None.

Critical Paths under _isr in BANK4

    None.

Critical Paths under _main in BANK5

    None.

Critical Paths under _isr in BANK5

    None.

Call Graph Tables:

 ---------------------------------------------------------------------------------
 (Depth) Function   	        Calls       Base Space   Used Autos Params    Refs
 ---------------------------------------------------------------------------------
 (0) _main                                                 6     6      0   35104
                                             54 COMRAM     6     6      0
                            ___fldiv
                            ___fltol
                           ___xxtofl
                         _clcd_write
                  _display_dashboard
                        _init_config
                          _logscreen
                           _read_adc
                      _read_switches
                          _scrolllog
 ---------------------------------------------------------------------------------
 (1) _scrolllog                                            0     0      0    3379
                         _clcd_print
 ---------------------------------------------------------------------------------
 (1) _read_switches                                        1     1      0      30
                                              0 COMRAM     1     1      0
                           _scan_key
 ---------------------------------------------------------------------------------
 (2) _scan_key                                             0     0      0       0
 ---------------------------------------------------------------------------------
 (1) _read_adc                                             5     3      2      22
                                              0 COMRAM     5     3      2
 ---------------------------------------------------------------------------------
 (1) _logscreen                                            1     1      0   14832
                                             16 COMRAM     1     1      0
                         _clcd_print
                         _clcd_putch
                         _clcd_write
                           _mystrcmp
                           _timeleft
 ---------------------------------------------------------------------------------
 (2) _timeleft                                             0     0      0    7907
                            ___awdiv
                            ___awmod
                         _clcd_print
                         _clcd_putch
                         _clcd_write
 ---------------------------------------------------------------------------------
 (3) ___awdiv                                              8     4      4     452
                                              0 COMRAM     8     4      4
 ---------------------------------------------------------------------------------
 (2) _mystrcmp                                             8     4      4     286
                                              0 COMRAM     8     4      4
 ---------------------------------------------------------------------------------
 (1) _init_config                                          0     0      0    1184
                           _init_adc
                          _init_clcd
                  _init_matrixkeypad
                        _init_timer0
 ---------------------------------------------------------------------------------
 (2) _init_timer0                                          0     0      0       0
 ---------------------------------------------------------------------------------
 (2) _init_matrixkeypad                                    0     0      0       0
 ---------------------------------------------------------------------------------
 (2) _init_clcd                                            2     2      0    1184
                                              2 COMRAM     2     2      0
                         _clcd_write
 ---------------------------------------------------------------------------------
 (2) _init_adc                                             0     0      0       0
 ---------------------------------------------------------------------------------
 (1) _display_dashboard                                    3     1      2   12258
                                             19 COMRAM     3     1      2
                         _clcd_print
                      _display_speed
                       _display_time
                       _gear_monitor
 ---------------------------------------------------------------------------------
 (2) _gear_monitor                                         3     3      0    2054
                                             16 COMRAM     3     3      0
                         _clcd_putch
 ---------------------------------------------------------------------------------
 (2) _display_time                                         0     0      0    3379
                         _clcd_print
 ---------------------------------------------------------------------------------
 (2) _clcd_print                                           3     0      3    3379
                                              2 COMRAM     3     0      3
                         _clcd_write
 ---------------------------------------------------------------------------------
 (2) _display_speed                                        2     0      2    3326
                                             16 COMRAM     2     0      2
                            ___awmod
                            ___lwdiv
                         _clcd_putch
 ---------------------------------------------------------------------------------
 (3) _clcd_putch                                           2     1      1    1988
                                             14 COMRAM     2     1      1
                            ___awdiv (ARG)
                            ___awmod (ARG)
                            ___lwdiv (ARG)
                         _clcd_write
 ---------------------------------------------------------------------------------
 (3) _clcd_write                                           2     1      1    1184
                                              0 COMRAM     2     1      1
 ---------------------------------------------------------------------------------
 (3) ___lwdiv                                              7     3      4     314
                                              0 COMRAM     7     3      4
 ---------------------------------------------------------------------------------
 (3) ___awmod                                              6     2      4     904
                                              8 COMRAM     6     2      4
                            ___awdiv (ARG)
                            ___lwdiv (ARG)
 ---------------------------------------------------------------------------------
 (1) ___xxtofl                                            14    10      4     398
                                              5 COMRAM    14    10      4
                           _read_adc (ARG)
 ---------------------------------------------------------------------------------
 (1) ___fltol                                             10     6      4     305
                                             44 COMRAM    10     6      4
                            ___fldiv (ARG)
                           ___xxtofl (ARG)
                           _read_adc (ARG)
 ---------------------------------------------------------------------------------
 (1) ___fldiv                                             25    17      8    1399
                                             19 COMRAM    25    17      8
                           ___xxtofl (ARG)
                           _read_adc (ARG)
 ---------------------------------------------------------------------------------
 Estimated maximum stack depth 3
 ---------------------------------------------------------------------------------
 (Depth) Function   	        Calls       Base Space   Used Autos Params    Refs
 ---------------------------------------------------------------------------------
 (5) _isr                                                  0     0      0       0
 ---------------------------------------------------------------------------------
 Estimated maximum stack depth 5
 ---------------------------------------------------------------------------------

 Call Graph Graphs:

 _main (ROOT)
   ___fldiv
     ___xxtofl (ARG)
       _read_adc (ARG)
     _read_adc (ARG)
   ___fltol
     ___fldiv (ARG)
     ___xxtofl (ARG)
     _read_adc (ARG)
   ___xxtofl
   _clcd_write
   _display_dashboard
     _clcd_print
       _clcd_write
     _display_speed
       ___awmod
         ___awdiv (ARG)
         ___lwdiv (ARG)
       ___lwdiv
       _clcd_putch
         ___awdiv (ARG)
         ___awmod (ARG)
         ___lwdiv (ARG)
         _clcd_write (ARG)
     _display_time
       _clcd_print
     _gear_monitor
       _clcd_putch
   _init_config
     _init_adc
     _init_clcd
       _clcd_write
     _init_matrixkeypad
     _init_timer0
   _logscreen
     _clcd_print
     _clcd_putch
     _clcd_write
     _mystrcmp
     _timeleft
       ___awdiv
       ___awmod
       _clcd_print
       _clcd_putch
       _clcd_write
   _read_adc
   _read_switches
     _scan_key
   _scrolllog
     _clcd_print

 _isr (ROOT)

 Address spaces:
Name               Size   Autos  Total    Cost      Usage
BIGRAM             5FF      0       0      25        0.0%
BITBIGSFRll        281      0       0      23        0.0%
EEDATA             100      0       0       0        0.0%
BITBANK5           100      0       0      14        0.0%
BANK5              100      0       0      15        0.0%
BITBANK4           100      0       0      12        0.0%
BANK4              100      0       0      13        0.0%
BITBANK3           100      0       0      10        0.0%
BANK3              100      0       0      11        0.0%
BITBANK2           100      0       0       8        0.0%
BANK2              100      0       0       9        0.0%
BITBANK1           100      0       0       6        0.0%
BANK1              100      0       0       7        0.0%
BITBANK0            A0      0       0       4        0.0%
BANK0               A0      0      28       5       25.0%
BITCOMRAM           5E      0       0       0        0.0%
COMRAM              5E     3C      59       1       94.7%
BITBIGSFRlhhh       22      0       0      20        0.0%
BITBIGSFRhlh        19      0       0      17        0.0%
BITBIGSFRlhl         F      0       0      22        0.0%
BITBIGSFRhh          D      0       0      16        0.0%
BITBIGSFRhllh        9      0       0      18        0.0%
BITBIGSFRlhhl        7      0       0      21        0.0%
BITBIGSFRhlll        5      0       0      19        0.0%
BIGSFR               0      0       0     200        0.0%
BITSFR_3             0      0       0     200        0.0%
SFR_3                0      0       0     200        0.0%
BITSFR_2             0      0       0     200        0.0%
SFR_2                0      0       0     200        0.0%
BITSFR_1             0      0       0     200        0.0%
SFR_1                0      0       0     200        0.0%
BITSFR               0      0       0     200        0.0%
SFR                  0      0       0     200        0.0%
STACK                0      0       0       2        0.0%
NULL                 0      0       0       0        0.0%
ABS                  0      0      81      24        0.0%
DATA                 0      0      81       3        0.0%
CODE                 0      0       0       0        0.0%


Microchip Technology PIC18 Macro Assembler V2.41 build 20230208172133 
Symbol Table                                                                                   Thu Dec 21 08:20:40 2023

             ___fldiv@aexp 002C               ___fldiv@bexp 002B                          _i 004F  
             ___fldiv@sign 0024             clcd_print@addr 0005             clcd_print@data 0003  
                       l23 12FA                         l32 088E                         l83 12B6  
                       l86 11DA                         l89 11F6                         _GO 7E11  
             ___awdiv@sign 0006          _init_matrixkeypad 130E                        l120 0B62  
                      l104 1252                        l107 130C                        l123 0BBA  
                      l126 1130                        l144 1224                        l145 1228  
                      l154 11C0                        l170 131A                        l148 0DF2  
                      l180 0FA6                        l157 12E8                        l318 12D0  
                      l190 0EEC                        l255 06D4                        l191 0F00  
                      l280 0C7E                        l328 1298                        l193 0F1C  
                      l258 052E                        l186 0EBE                        l178 0FA8  
                      l187 0F32                        l188 0ED2                        l287 10DE  
                      l279 0C6A                        l562 0D42                        l628 0AC4  
                      l822 1014                        l575 0EA2                        l913 03AA  
                      l915 020A                        l924 0250                        l829 101C  
                      l926 02C8                        l918 01CE                        l927 02B6  
                      l993 07C4                        l986 072C                        _GIE 7F97  
                      l989 0888                        u300 0F16                        u301 0F12  
                      u310 0F2A                        u311 0F26                        u400 0F9E  
                      u401 0F9A                        u260 0EB8                        u261 0EB4  
                      u270 0ECC                        _PR2 0FCB                        u271 0EC8  
                      u280 0EE6                        u360 0F46                        u281 0EE2  
                      u361 0F42                        u290 0EFA                        u370 0F5E  
                      u291 0EF6                        u371 0F5A                        u380 0F74  
                      u381 0F70                        u390 0F84                        u391 0F80  
                      _PSA 7EAB              ?_display_time 0001         ?_init_matrixkeypad 0001  
                      _min 0049                        _sec 0055                        _isr 0008  
           clcd_putch@addr 000F             clcd_putch@data 0010               ___awmod@sign 000E  
                      prod 0FF3                        wreg 0FE8        ??_init_matrixkeypad 0001  
             ___fltol@exp1 0036                       l1000 0820                       l2000 0596  
                     l2010 0612                       l2002 05B6                       l2100 0124  
                     l1140 1318                       l2020 066A                       l2012 0622  
                     l2004 05DC                       l1300 0F5E                       l2110 0162  
                     l2102 0134                       l2030 06A8                       l2022 0674  
                     l2014 0628                       l2006 05E8                       l1222 0ECC  
                     l1214 0EA4                       l1302 0F64                       l2120 01AA  
                     l2112 0172                       l2104 0134                       l2200 0A26  
                     l1136 130E                       l2040 06CC                       l2032 06AC  
                     l2016 0634                       l2008 0602                       l2024 0680  
                     l1232 0EFA                       l1216 0EB8                       l1304 0F74  
                     l1312 0F8E                       l2130 01F8                       l2122 01BE  
                     l2114 0182                       l2050 0012                       l2210 0A50  
                     l2202 0A2A                       l2042 122C                       l1138 1312  
                     l2034 06B4                       l2026 0688                       l2018 0644  
                     l1242 0F2A                       l1226 0EE6                       l1314 0F9E  
                     l1306 0F84                       l2140 0240                       l2132 0208  
                     l2124 01CC                       l2116 0192                       l2108 0148  
                     l2060 004E                       l2052 001E                       l2220 0A78  
                     l2212 0A5A                       l2204 0A38                       l2044 1240  
                     l1180 12B8                       l2036 06BC                       l2028 0698  
                     l1236 0F16                       l1316 0FA6                       l2300 0980  
                     l2150 0280                       l2142 024E                       l2134 021A  
                     l2126 01D8                       l2118 019A                       l2070 007E  
                     l2062 005E                       l2054 002C                       l2222 0A84  
                     l2214 0A64                       l2046 1246                       l1182 12C8  
                     l2038 06C4                       l1246 0F30                       l2160 02F2  
                     l2152 02AE                       l2136 0230                       l2144 0260  
                     l2128 01F6                       l2080 00B4                       l2072 0084  
                     l2064 0060                       l2056 002E                       l2224 0A94  
                     l2240 0752                       l2232 06D8                       l2048 1278  
                     l2170 036A                       l2162 031C                       l2146 026E  
                     l2138 0236                       l2090 00F4                       l2082 00C4  
                     l2074 0092                       l2058 003E                       l2066 0068  
                     l2226 0AA4                       l2250 07AC                       l2234 06E8  
                     l1178 129A                       l1290 0F36                       l2180 03A0  
                     l2172 0386                       l2156 02D8                       l2164 0320  
                     l2148 0272                       l2092 0104                       l2084 00C6  
                     l2076 0094                       l2068 0078                       l2228 0AB4  
                     l2260 0810                       l2252 07AE                       l2244 0766  
                     l2236 06F6                       l1292 0F46                       l2174 038A  
                     l2166 033A                       l2158 02E4                       l2094 010C  
                     l2078 00A4                       l2086 00CE                       l2190 09D6  
                     l2270 0868                       l2262 082E                       l2254 07BA  
                     l2246 076E                       l2238 073C                       l1710 120A  
                     l2176 0398                       l2168 0350                       l2096 0110  
                     l2088 00DE                       l2272 0876                       l2264 0830  
                     l2256 07F6                       l2248 077A                       l1800 0E6E  
                     l1720 1214                       l1712 120C                       l1704 11FA  
                     l2336 0996                       l2280 08F6                       l2178 039E  
                     l2194 09EA                       l2274 0878                       l2266 0834  
                     l2258 0802                       l1810 0E9A                       l1802 0E76  
                     l1722 1216                       l1714 120E                       l1706 1204  
                     l1730 11A4                       l1298 0F4E                       l2290 094E  
                     l2282 0908                       l2196 0A14                       l2188 09C0  
                     l2268 0858                       l1804 0E7C                       l1820 0FCC  
                     l1716 1210                       l1708 1208                       l1732 12D4  
                     l1900 10E0                       l1724 117E                       l1740 0C9A  
                     l2292 095C                       l2284 0924                       l2198 0A16  
                     l1806 0E82                       l1830 1006                       l1822 0FD4  
                     l1814 0FAA                       l1718 1212                       l1726 118C  
                     l1910 10C2                       l1902 1084                       l1750 0CC0  
                     l1742 0C9E                       l1734 0C80                       l2294 0966  
                     l2286 0934                       l2278 088A                       l1808 0E92  
                     l1832 1008                       l1824 0FE2                       l1816 0FB2  
                     l1728 11A0                       l1840 0D4E                       l1904 1090  
                     l1760 0CF6                       l1752 0CD2                       l1744 0CAC  
                     l1736 0C84                       l1920 0C04                       l1912 0BBC  
                     l2296 0978                       l2288 0946                       l1834 100E  
                     l1826 0FE8                       l1818 0FC4                       l1850 0D8C  
                     l1842 0D50                       l1930 12EA                       l1762 0D0C  
                     l1754 0CDA                       l1770 0D22                       l1746 0CB4  
                     l1738 0C92                       l1922 0C24                       l1914 0BC6  
                     l1780 0DF8                       l1828 0FFE                       l1860 0DB6  
                     l1852 0D94                       l1844 0D68                       l1836 0D44  
                     l1932 12F2                       l1908 10BE                       l1772 0D32  
                     l1764 0D14                       l1756 0CE2                       l1748 0CB8  
                     l1924 0C58                       l1916 0BCE                       l1940 11E8  
                     l1790 0E28                       l1782 0E06                       l1870 0DEA  
                     l1862 0DC0                       l1854 0D9E                       l1846 0D72  
                     l1838 0D48                       l1934 12F6                       l1774 0D3A  
                     l1766 0D16                       l1758 0CF0                       l1926 0C6C  
                     l1918 0BD4                       l1950 03D6                       l1792 0E3A  
                     l1784 0E0E                       l1872 12FC                       l1880 0AF6  
                     l1864 0DC8                       l1856 0DA4                       l1848 0D82  
                     l1768 0D1C                       l1928 0C74                       l1960 0448  
                     l1952 03E8                       l1944 03AE                       l1936 11C4  
                     l1794 0E42                       l1786 0E12                       l1778 0DF4  
                     l1890 0B3C                       l1882 0B06                       l1874 0AC8  
                     l1866 0DD2                       l1858 0DAE                       l1970 0494  
                     l1962 0450                       l1954 03F8                       l1946 03B4  
                     l1938 11D8                       l1796 0E4A                       l1788 0E20  
                     l1892 0B4C                       l1884 0B0C                       l1876 0AD8  
                     l1868 0DE0                       l1980 04D6                       l1972 04A2  
                     l1964 0460                       l1956 0420                       l1948 03C6  
                     l1798 0E58                       l1894 0B5C                       l1886 0B1E  
                     l1878 0AE4                       l1982 04E2                       l1966 0472  
                     l1974 04A8                       l1990 0532                       l1888 0B2A  
                     l1896 0B62                       l1984 04F8                       l1976 04BA  
                     l1992 053E                       l1968 0482                       l1898 0B86  
                     l1994 0550                       l1986 0508                       l1978 04BE  
                     l1996 0576                       l1988 051E                       l1998 0586  
                     _ADFM 7E07                       ?_isr 0001                       _ADON 7E10  
                     STR_1 7FF9                       STR_2 7FF6                       STR_3 7FEA  
                     STR_4 7FED                       STR_5 7FF0                       STR_6 7FF3  
                     STR_7 7FFC                       STR_8 7FE7                       STR_9 7F90  
                     _T0CS 7EAD                       u1010 1224                       u1011 1220  
                     u1100 0E20                       u1020 11C0                       u1101 0E1C  
                     u1005 1202                       u1021 11BC                       u1110 0E3A  
                     u1006 1204                       u1030 0C92                       u1111 0E36  
                     u1031 0C8E                       u1120 0E58                       u1200 0B06  
                     u1040 0CAC                       u1121 0E54                       u1201 0B02  
                     u1041 0CA8                       u1130 0E6E                       u1210 0B1E  
                     u1050 0CD2                       u1131 0E6A                       u1211 0B1A  
                     u1051 0CCE                       u1140 0E92                       u1220 0B3C  
                     u1060 0CF0                       u1300 03E8                       u1141 0E8E  
                     u1221 0B38                       u1061 0CEC                       u1301 03E4  
                     u1150 0FC4                       u1230 0B4C                       u1070 0D0C  
                     u1310 03F8                       u1151 0FC0                       u1231 0B48  
                     u1071 0D08                       u1311 03F4                       u1160 0FE2  
                     u1240 0B5C                       u1080 0D32                       u1400 0576  
                     u1320 0420                       u1161 0FDE                       u1241 0B58  
                     u1081 0D2E                       u1401 0572                       u1321 041C  
                     u1090 0E06                       u1170 0FFE                       u1250 10BA  
                     u1410 05DC                       u1330 0460                       u1091 0E02  
                     u1171 0FFA                       u1251 10B6                       u1411 05D8  
                     u1331 045C                       u1500 0134                       u1180 0AD8  
                     u1260 10DE                       u1420 066A                       u1340 0472  
                     u1501 0130                       u1181 0AD4                       u1261 10DA  
                     u1421 0666                       u1341 046E                       u1510 01AA  
                     u1430 002C                       u1190 0AF6                       u1270 0C6A  
                     u1350 04BA                       u1511 01A6                       u1431 0028  
                     u1191 0AF2                       u1271 0C66                       u1351 04B6  
                     u1600 02C4                       u1520 01CC                       u1440 003E  
                     u1360 04D6                       u1280 11E8                       u1601 02C0  
                     u1521 01C8                       u1441 003A                       u1361 04D2  
                     u1281 11E4                       u1610 02D8                       u1530 01F6  
                     u1450 004E                       u1370 04F8                       u1290 03C6  
                     u1611 02D4                       u1531 01F2                       u1451 004A  
                     u1371 04F4                       u1291 03C2                       u1620 02F2  
                     u1540 021A                       u1460 0092                       u1700 0A74  
                     u1380 051E                       u1621 02EE                       u1541 0216  
                     u1461 008E                       u1701 0A70                       u1381 051A  
                     u1630 033A                       u1550 0230                       u1470 00A4  
                     u1710 0A94                       u1390 0550                       u1631 0336  
                     u1551 022C                       u1471 00A0                       u1711 0A90  
                     u1391 054C                       u1640 036A                       u1560 024E  
                     u1480 00B4                       u1720 0AA4                       u1800 082E  
                     u1641 0366                       u1561 024A                       u1481 00B0  
                     u1721 0AA0                       u1801 082A                       u1650 0398  
                     u1570 026E                       u1490 00F4                       u1810 0868  
                     u1730 06E8                       u1651 0394                       u1571 026A  
                     u1491 00F0                       u1811 0864                       u1731 06E4  
                     u1580 0280                       u1660 09D6                       u1820 0876  
                     u1740 06F6                       u1581 027C                       u1661 09D2  
                     u1821 0872                       u1741 06F2                       u1590 02AE  
                     u1670 0A0A                       u1750 0752                       u1830 0908  
                     u1591 02AA                       u1751 074E                       u1831 0904  
                     u1680 0A38                       u1760 07A8                       u1840 0924  
                     u1681 0A34                       u1761 07A4                       u1841 0920  
                     u1690 0A4C                       u1770 07F2                       u1850 0946  
                     u1691 0A48                       u1675 0A00                       u1771 07EE  
                     u1907 0D8E                       u1851 0942                       u1780 0810  
                     u1781 080C                       u1917 0DB0                       u1790 0820  
                     u1791 081C                       u1927 0DC2                       u1937 0DD8  
                     u1947 0DEC                       _PEIE 7F96                       u1887 0D5A  
                     u1897 0D78                       _RBPU 7F8F                       _TMR0 0FD6  
           ?_display_speed 0011                       _main 088A                       _pass 007E  
                     _wait 003D                       indf2 0FDF                       fsr1l 0FE1  
                     fsr2l 0FD9                       btemp 005A                       prodl 0FF3  
                     start 000E            ___fldiv@new_exp 0025               ___param_bank 0000  
           clcd_write@byte 0002  __end_of_init_matrixkeypad 131C                      ??_isr 0001  
            ___fltol@sign1 0035                      _ADCS0 7E00                      _ADCS1 7E01  
                    _ADCS2 7E02                      ?_main 0001             ??_display_time 0006  
          __end_of___fldiv 03AC                      _ACQT0 7E03                      _ACQT1 7E04  
                    _ACQT2 7E05            __end_of___awdiv 0D44                      STR_10 7FCF  
                    STR_11 7F5D                      STR_20 7FE2                      STR_12 7F3B  
                    STR_13 7F6E                      STR_21 7F18                      STR_14 7F4C  
                    STR_22 7F05                      STR_15 7F7F                      STR_23 7FA1  
                    STR_16 7FC0                      STR_24 7FB1                      STR_17 7F3C  
                    STR_25 7EF1                      STR_18 7FC0                      STR_26 7F2A  
                    STR_27 7F2A                      STR_19 7FD9            __end_of___awmod 0EA4  
          __end_of___fltol 0AC6            ___awdiv@divisor 0003                      _PCFG0 7E08  
                    _PCFG1 7E09                      _PCFG2 7E0A                      _PCFG3 7E0B  
          __end_of___lwdiv 101E                      i2l210 117A               ?_init_config 0001  
          ___awdiv@counter 0005                      _VCFG0 7E0C                      _VCFG1 7E0D  
                    _PORTB 0F81                      _PORTD 0F83                      _TRISB 0F93  
                    _TRISC 0F94                      _TRISD 0F95               ?_init_timer0 0001  
                    _blink 0047                      _uckey 0083                      tablat 0FF5  
                    ttemp5 005B                      ttemp6 005E                      ttemp7 0062  
                    status 0FD8                      wtemp8 005B       __end_of_gear_monitor 0BBC  
          __initialization 101E               __end_of_main 09C0                     ??_main 0037  
            __activetblptr 0002                     _ADCON0 0FC2            ??_display_speed 0013  
                   _ADRESH 0FC4                     _ADRESL 0FC3                     _T08BIT 7EAE  
         ___awdiv@dividend 0001                     i2l2310 116A                     i2l2312 1172  
                   i2l2314 1178                     i2l2306 1134                     i2l2308 1142  
                   _TMR0IE 7F95                     _TMR0IF 7F92                     _TMR2IE 7CE9  
                   _TMR0ON 7EAF                     _TMR2ON 7E52                     _TRISD7 7CAF  
         __end_of___xxtofl 088A                  ??___fldiv 001C                  ??___awdiv 0005  
                ??___awmod 000D                  ??___fltol 0031                  ??___lwdiv 0005  
         __end_of_init_adc 12B8           __end_of_read_adc 11F8                     clear_0 1070  
         ___awdiv@quotient 0007                     _logout 004D            ___awmod@divisor 000B  
                   isa$std 0001           __end_of_scan_key 0F34            ___awmod@counter 000D  
    gear_monitor@crashflag 0051               __pdataCOMRAM 0053               __mediumconst 7EF0  
         __end_of_timeleft 0C80                     tblptrh 0FF7                     tblptrl 0FF6  
                   tblptru 0FF8           __end_of_mystrcmp 10E0               ___xxtofl@arg 0010  
             ___xxtofl@exp 000F               ___xxtofl@val 0006                 __accesstop 0060  
  __end_of__initialization 1076       __end_of_display_time 130E              ___rparam_used 0001  
               ___fltol@f1 002D             __pcstackCOMRAM 0001               __pidataBANK0 1254  
    gear_monitor@signindex 0052                 __pbssBANK0 0083                 _clcd_print 117E  
               _clcd_putch 12D2                 _clcd_write 11F8   read_switches@ucdetection 0001  
                  _T2CKPS0 7E50                    _T2CKPS1 7E51                  ?___xxtofl 0006  
             _gear_monitor 0AC6              _read_switches 0F34                  ?_init_adc 0001  
                ?_read_adc 0001        read_switches@uconce 0059                  ?_scan_key 0001  
                  __Hparam 0000                    __Lparam 0000                  ?_timeleft 0001  
                  ___fldiv 0012                    ___awdiv 0C80                    ___awmod 0DF4  
                  ___fltol 09C0                    ___lwdiv 0FAA                  ?_mystrcmp 0001  
                  __pcinit 101E                    __ramtop 0600                    __ptext0 088A  
                  __ptext1 1278                    __ptext2 0F34                    __ptext3 0EA4  
                  __ptext4 11C2                    __ptext5 03AC                    __ptext6 0BBC  
                  __ptext7 0C80                    __ptext8 1084                    __ptext9 12EA  
        __end_of_init_clcd 0DF4                 ??___xxtofl 000A           ___awmod@dividend 0009  
   display_dashboard@uckey 0016             ?_read_switches 0001     display_dashboard@usads 0014  
        __end_of_logscreen 06D6             __pintcode_body 1132                    _tryflag 0053  
     end_of_initialization 1076                 ??_init_adc 0001              __Lmediumconst 7EF0  
               ??_read_adc 0003                    int_func 1132                 ??_scan_key 0001  
        __end_of_scrolllog 129A                ?_clcd_print 0003                ?_clcd_putch 000F  
              ?_clcd_write 0001                 ??_timeleft 0011                    postdec1 0FE5  
                  postdec2 0FDD                    postinc0 0FEE                    postinc1 0FE6  
                  postinc2 0FDE                 ??_mystrcmp 0005                  _PORTBbits 0F81  
                _PORTCbits 0F82                  _PORTDbits 0F83            read_adc@channel 0005  
               _notpressed 007A               _display_time 12FC              ___xxtofl@sign 000E  
              ___fldiv@grs 0027                ___fldiv@rem 0020      __end_of_display_speed 1132  
               main@uc1Key 003B              __pidataCOMRAM 131C        start_initialization 101E  
          ??_read_switches 0001                __end_of_isr 117E                __pdataBANK0 0060  
            ??_init_config 0005                  ___fldiv@a 0018                  ___fldiv@b 0014  
            ??_init_timer0 0001                __pbssCOMRAM 003D         display_speed@usadc 0011  
             logscreen@key 0011           ___lwdiv@dividend 0001                  __pintcode 0008  
            __pmediumconst 7EF0                  _blinkflag 0045                   ?___fldiv 0014  
                 ?___awdiv 0001                   ?___awmod 0009                   ?___fltol 002D  
        _display_dashboard 122A                   ?___lwdiv 0001         ?_display_dashboard 0014  
       read_switches@uckey 0050                  _enterflag 0043        ??_display_dashboard 0016  
        gear_monitor@uckey 0013           ___lwdiv@quotient 0005                  _init_clcd 0D44  
      __end_of_init_config 12FC        __end_of_init_timer0 12D2                  _logscreen 03AC  
             ??_clcd_print 0006               ??_clcd_putch 0010               ??_clcd_write 0002  
                 i2u186_40 1142                   i2u186_41 113E                   i2u187_40 116A  
                 i2u187_41 1166  __end_of_display_dashboard 1254                  _signature 0060  
                _scrolling 0070                  _scrolllog 1278                _compareflag 0041  
    clcd_write@control_bit 0001                  main@ucKey 003C                  main@usAdc 0039  
       __end_of_clcd_print 11C2         __end_of_clcd_putch 12EA         __end_of_clcd_write 122A  
               ?_init_clcd 0001                  copy_data0 1032                  copy_data1 1052  
              _controlflag 0057                 ?_logscreen 0001                   __Hrparam 0000  
                 __Lrparam 0000                 ?_scrolllog 0001                _init_config 12EA  
                 ___xxtofl 06D6                 mystrcmp@s1 0001                 mystrcmp@s2 0003  
              _init_timer0 12B8            ___lwdiv@divisor 0003            ___lwdiv@counter 0007  
                 __ptext10 12B8                   __ptext11 130E                   __ptext20 11F8  
                 __ptext12 0D44                   __ptext21 0FAA                   __ptext13 129A  
                 __ptext22 0DF4                   __ptext14 122A                   __ptext23 06D6  
                 __ptext15 0AC6                   __ptext24 09C0                   __ptext16 12FC  
                 __ptext25 0012                   __ptext17 117E                   __ptext18 10E0  
                 __ptext19 12D2                   _init_adc 129A                   _read_adc 11C2  
                 _scan_key 0EA4                   isa$xinst 0000                   _timeleft 0BBC  
                 int$flags 005A                   _mystrcmp 1084              ?_gear_monitor 0001  
                 isr@count 004B                ??_init_clcd 0003      __end_of_read_switches 0FAA  
                 intlevel2 0000                  mystrcmp@i 0007                ??_logscreen 0011  
              ??_scrolllog 0006             ??_gear_monitor 0011              _display_speed 10E0  
